EXPORTS
;pywrap_function
  ?CityHash64@hash_internal@lts_20230802@absl@@YA_KPEBD_K@Z
  ?CombineLargeContiguousImpl64@MixingHashState@hash_internal@lts_20230802@absl@@CA_K_KPEBE0@Z
  ??$Dispatch@V?$basic_string@DU?$char_traits@D@std@@V?$allocator@D@2@@std@@@FormatArgImpl@str_format_internal@lts_20230802@absl@@CA_NTData@0123@VFormatConversionSpecImpl@123@PEAX@Z
  ?FormatPack@str_format_internal@lts_20230802@absl@@YA?AV?$basic_string@DU?$char_traits@D@std@@V?$allocator@D@2@@std@@VUntypedFormatSpecImpl@123@V?$Span@$$CBVFormatArgImpl@str_format_internal@lts_20230802@absl@@@23@@Z
  ??$find_first_non_full@X@container_internal@lts_20230802@absl@@YA?AUFindInfo@012@AEBVCommonFields@012@_K@Z
  ?ClearBackingArray@container_internal@lts_20230802@absl@@YAXAEAVCommonFields@123@AEBUPolicyFunctions@123@_N@Z
  ?DropDeletesWithoutResize@container_internal@lts_20230802@absl@@YAXAEAVCommonFields@123@AEBUPolicyFunctions@123@PEAX@Z
  ?ParseFromString@MessageLite@protobuf@google@@QEAA_NAEBV?$basic_string@DU?$char_traits@D@std@@V?$allocator@D@2@@std@@@Z
  ?SerializeAsString@MessageLite@protobuf@google@@QEBA?AV?$basic_string@DU?$char_traits@D@std@@V?$allocator@D@2@@std@@XZ
  ??1SignatureDef@tensorflow@@UEAA@XZ
  ?CopyFrom@SignatureDef@tensorflow@@QEAAXAEBV12@@Z
  ?InternalSwap@SignatureDef@tensorflow@@AEAAXPEAV12@@Z
  ??0SignatureDef@tensorflow@@IEAA@PEAVArena@protobuf@google@@_N@Z
  ??1ExportedModel@quantization@tensorflow@@UEAA@XZ
  ?CopyFrom@ExportedModel@quantization@tensorflow@@QEAAXAEBV123@@Z
  ?InternalSwap@ExportedModel@quantization@tensorflow@@AEAAXPEAV123@@Z
  ??0ExportedModel@quantization@tensorflow@@IEAA@PEAVArena@protobuf@google@@_N@Z
  ??1CalibrationOptions@quantization@tensorflow@@UEAA@XZ
  ??0CalibrationOptions@quantization@tensorflow@@IEAA@PEAVArena@protobuf@google@@_N@Z
  ?kSeed@MixingHashState@hash_internal@lts_20230802@absl@@0QEBXEB
  ?kEmptyGroup@container_internal@lts_20230802@absl@@3QBW4ctrl_t@123@B
  ??_7SignatureDef@tensorflow@@6B@
  ??_7ExportedModel@quantization@tensorflow@@6B@
  ??_7CalibrationOptions@quantization@tensorflow@@6B@

;_pywrap_snapshot_utils
  ?SnapshotDoneFilePath@data@tensorflow@@YA?AV?$basic_string@DU?$char_traits@D@std@@V?$allocator@D@2@@std@@V?$basic_string_view@DU?$char_traits@D@std@@@4@@Z
  ?SnapshotErrorFilePath@data@tensorflow@@YA?AV?$basic_string@DU?$char_traits@D@std@@V?$allocator@D@2@@std@@V?$basic_string_view@DU?$char_traits@D@std@@@4@@Z
  ?SnapshotMetadataFilePath@data@tensorflow@@YA?AV?$basic_string@DU?$char_traits@D@std@@V?$allocator@D@2@@std@@V?$basic_string_view@DU?$char_traits@D@std@@@4@@Z
  ?CommittedChunksDirectory@data@tensorflow@@YA?AV?$basic_string@DU?$char_traits@D@std@@V?$allocator@D@2@@std@@V?$basic_string_view@DU?$char_traits@D@std@@@4@@Z

;_pywrap_python_api_dispatche
  ?StrCat@lts_20230802@absl@@YA?AV?$basic_string@DU?$char_traits@D@std@@V?$allocator@D@2@@std@@AEBVAlphaNum@12@00@Z
  ??0PythonAPIDispatcher@py_dispatch@tensorflow@@QEAA@AEBV?$basic_string@DU?$char_traits@D@std@@V?$allocator@D@2@@std@@V?$Span@PEBD@lts_20230802@absl@@V?$Span@PEAU_object@@@67@@Z
  ?Register@PythonAPIDispatcher@py_dispatch@tensorflow@@QEAAXVPySignatureChecker@23@PEAU_object@@@Z
  ?Dispatch@PythonAPIDispatcher@py_dispatch@tensorflow@@QEAA?AV?$unique_ptr@U_object@@UPyDecrefDeleter@detail@tensorflow@@@std@@PEAU_object@@0@Z
  ?Unregister@PythonAPIDispatcher@py_dispatch@tensorflow@@QEAAXPEAU_object@@@Z
  ?DebugString@PythonAPIDispatcher@py_dispatch@tensorflow@@QEBA?AV?$basic_string@DU?$char_traits@D@std@@V?$allocator@D@2@@std@@XZ
  ?RegisterDispatchableType@py_dispatch@tensorflow@@YA_NPEAU_object@@@Z
  ??0PySignatureChecker@py_dispatch@tensorflow@@QEAA@V?$vector@U?$pair@HV?$shared_ptr@VPyTypeChecker@py_dispatch@tensorflow@@@std@@@std@@V?$allocator@U?$pair@HV?$shared_ptr@VPyTypeChecker@py_dispatch@tensorflow@@@std@@@std@@@2@@std@@@Z
  ?CheckCanonicalizedArgs@PySignatureChecker@py_dispatch@tensorflow@@QEBA_NV?$Span@PEAU_object@@@lts_20230802@absl@@@Z
  ?DebugString@PySignatureChecker@py_dispatch@tensorflow@@QEBA?AV?$basic_string@DU?$char_traits@D@std@@V?$allocator@D@2@@std@@XZ
  ??0PyInstanceChecker@py_dispatch@tensorflow@@QEAA@AEBV?$vector@PEAU_object@@V?$allocator@PEAU_object@@@std@@@std@@@Z
  ?Check@PyListChecker@py_dispatch@tensorflow@@UEAA?AW4MatchType@PyTypeChecker@23@PEAU_object@@@Z
  ?cost@PyListChecker@py_dispatch@tensorflow@@UEBAHXZ
  ?DebugString@PyListChecker@py_dispatch@tensorflow@@UEBA?AV?$basic_string@DU?$char_traits@D@std@@V?$allocator@D@2@@std@@XZ
  ?Check@PyUnionChecker@py_dispatch@tensorflow@@UEAA?AW4MatchType@PyTypeChecker@23@PEAU_object@@@Z
  ?cost@PyUnionChecker@py_dispatch@tensorflow@@UEBAHXZ
  ?DebugString@PyUnionChecker@py_dispatch@tensorflow@@UEBA?AV?$basic_string@DU?$char_traits@D@std@@V?$allocator@D@2@@std@@XZ

;_math_ops
  ??BCord@lts_20230802@absl@@QEBA?AV?$basic_string@DU?$char_traits@D@std@@V?$allocator@D@2@@std@@XZ
  ?raw_code@Status@lts_20230802@absl@@QEBAHXZ
  ?ForEachPayload@Status@lts_20230802@absl@@QEBAXV?$FunctionRef@$$A6AXV?$basic_string_view@DU?$char_traits@D@std@@@std@@AEBVCord@lts_20230802@absl@@@Z@23@@Z
  ?UnrefNonInlined@Status@lts_20230802@absl@@CAX_K@Z
  ?Mul@ops@tensorflow@@YA?AVStatus@lts_20230802@absl@@PEAVAbstractContext@2@QEAVAbstractTensorHandle@2@1PEAPEAV72@PEBD3@Z
  ?AddV2@ops@tensorflow@@YA?AVStatus@lts_20230802@absl@@PEAVAbstractContext@2@QEAVAbstractTensorHandle@2@1PEAPEAV72@PEBD3@Z
  ?MatMul@ops@tensorflow@@YA?AVStatus@lts_20230802@absl@@PEAVAbstractContext@2@QEAVAbstractTensorHandle@2@1PEAPEAV72@_N3PEBD4@Z
  ?Neg@ops@tensorflow@@YA?AVStatus@lts_20230802@absl@@PEAVAbstractContext@2@QEAVAbstractTensorHandle@2@PEAPEAV72@PEBD3@Z
  ?Sub@ops@tensorflow@@YA?AVStatus@lts_20230802@absl@@PEAVAbstractContext@2@QEAVAbstractTensorHandle@2@1PEAPEAV72@PEBD3@Z
  ?DivNoNan@ops@tensorflow@@YA?AVStatus@lts_20230802@absl@@PEAVAbstractContext@2@QEAVAbstractTensorHandle@2@1PEAPEAV72@PEBD3@Z
  ?Log1p@ops@tensorflow@@YA?AVStatus@lts_20230802@absl@@PEAVAbstractContext@2@QEAVAbstractTensorHandle@2@PEAPEAV72@PEBD3@Z
  ?Lookup@PyExceptionRegistry@tensorflow@@SAPEAU_object@@W4TSL_Code@@@Z

;_op_def_registry
  ?SerializeToString@MessageLite@protobuf@google@@QEBA_NPEAV?$basic_string@DU?$char_traits@D@std@@V?$allocator@D@2@@std@@@Z
  ??1OpDef@tensorflow@@UEAA@XZ
  ??0OpDef@tensorflow@@QEAA@AEBV01@@Z
  ?raw_code@Status@lts_20230802@absl@@QEBAHXZ
  ?UnrefNonInlined@Status@lts_20230802@absl@@CAX_K@Z
  ?NullTerminatedMessage@tsl@@YAPEBDAEBVStatus@lts_20230802@absl@@@Z
  ?RemoveNonDeprecationDescriptionsFromOpDef@tensorflow@@YAXPEAVOpDef@1@@Z
  ?LookUpOpDef@OpRegistryInterface@tensorflow@@QEBA?AVStatus@lts_20230802@absl@@AEBV?$basic_string@DU?$char_traits@D@std@@V?$allocator@D@2@@std@@PEAPEBVOpDef@2@@Z
  ?Global@OpRegistry@tensorflow@@SAPEAV12@XZ

;_flags_pybind
  ?Global@flags@tensorflow@@YAAEAVFlags@12@XZ

;_pywrap_tensor_float_32_execution
  ?enable_tensor_float_32_execution@tsl@@YAX_N@Z
  ?tensor_float_32_execution_enabled@tsl@@YA_NXZ

;_pywrap_device_lib
  ?ParseFromString@MessageLite@protobuf@google@@QEAA_NAEBV?$basic_string@DU?$char_traits@D@std@@V?$allocator@D@2@@std@@@Z
  ?SerializeToString@MessageLite@protobuf@google@@QEBA_NPEAV?$basic_string@DU?$char_traits@D@std@@V?$allocator@D@2@@std@@@Z
  ??0Status@lts_20230802@absl@@QEAA@W4StatusCode@12@V?$basic_string_view@DU?$char_traits@D@std@@@std@@@Z
  ?raw_code@Status@lts_20230802@absl@@QEBAHXZ
  ?UnrefNonInlined@Status@lts_20230802@absl@@CAX_K@Z
  ?NullTerminatedMessage@tsl@@YAPEBDAEBVStatus@lts_20230802@absl@@@Z
  ?StrCat@strings@tsl@@YA?AV?$basic_string@DU?$char_traits@D@std@@V?$allocator@D@2@@std@@AEBVAlphaNum@12@@Z
  ??1ConfigProto@tensorflow@@UEAA@XZ
  ?CopyFrom@ConfigProto@tensorflow@@QEAAXAEBV12@@Z
  ??0ConfigProto@tensorflow@@IEAA@PEAVArena@protobuf@google@@_N@Z
  ?AddDevices@DeviceFactory@tensorflow@@SA?AVStatus@lts_20230802@absl@@AEBUSessionOptions@2@AEBV?$basic_string@DU?$char_traits@D@std@@V?$allocator@D@2@@std@@PEAV?$vector@V?$unique_ptr@VDevice@tensorflow@@U?$default_delete@VDevice@tensorflow@@@std@@@std@@V?$allocator@V?$unique_ptr@VDevice@tensorflow@@U?$default_delete@VDevice@tensorflow@@@std@@@std@@@2@@8@@Z
  ??0SessionOptions@tensorflow@@QEAA@XZ
  ??_7ConfigProto@tensorflow@@6B@

;_function_parameter_canonicalizer_binding_for_test
  ??0LogMessageFatal@internal@tsl@@QEAA@PEBDH@Z
  ??1LogMessageFatal@internal@tsl@@UEAA@XZ
  ??0FunctionParameterCanonicalizer@tensorflow@@QEAA@V?$Span@PEBD@lts_20230802@absl@@V?$Span@PEAU_object@@@34@@Z
  ?Canonicalize@FunctionParameterCanonicalizer@tensorflow@@QEAA_NPEAU_object@@0V?$Span@PEAU_object@@@lts_20230802@absl@@@Z

;_pywrap_events_writer
  ?StrCat@lts_20230802@absl@@YA?AV?$basic_string@DU?$char_traits@D@std@@V?$allocator@D@2@@std@@AEBVAlphaNum@12@0@Z
  ?StrCat@lts_20230802@absl@@YA?AV?$basic_string@DU?$char_traits@D@std@@V?$allocator@D@2@@std@@AEBVAlphaNum@12@000@Z
  ?raw_code@Status@lts_20230802@absl@@QEBAHXZ
  ?UnrefNonInlined@Status@lts_20230802@absl@@CAX_K@Z
  ?NullTerminatedMessage@tsl@@YAPEBDAEBVStatus@lts_20230802@absl@@@Z
  ??0EventsWriter@tensorflow@@QEAA@AEBV?$basic_string@DU?$char_traits@D@std@@V?$allocator@D@2@@std@@@Z
  ??1EventsWriter@tensorflow@@QEAA@XZ
  ?InitWithSuffix@EventsWriter@tensorflow@@QEAA?AVStatus@lts_20230802@absl@@AEBV?$basic_string@DU?$char_traits@D@std@@V?$allocator@D@2@@std@@@Z
  ?FileName@EventsWriter@tensorflow@@QEAA?AV?$basic_string@DU?$char_traits@D@std@@V?$allocator@D@2@@std@@XZ
  ?WriteSerializedEvent@EventsWriter@tensorflow@@QEAAXV?$basic_string_view@DU?$char_traits@D@std@@@std@@@Z
  ?Flush@EventsWriter@tensorflow@@QEAA?AVStatus@lts_20230802@absl@@XZ
  ?Close@EventsWriter@tensorflow@@QEAA?AVStatus@lts_20230802@absl@@XZ

;_unified_api
  ??BCord@lts_20230802@absl@@QEBA?AV?$basic_string@DU?$char_traits@D@std@@V?$allocator@D@2@@std@@XZ
  ??1LogMessageFatal@internal@tsl@@UEAA@XZ
  ??0Status@lts_20230802@absl@@QEAA@W4StatusCode@12@V?$basic_string_view@DU?$char_traits@D@std@@@std@@@Z
  ?raw_code@Status@lts_20230802@absl@@QEBAHXZ
  ?ForEachPayload@Status@lts_20230802@absl@@QEBAXV?$FunctionRef@$$A6AXV?$basic_string_view@DU?$char_traits@D@std@@@std@@AEBVCord@lts_20230802@absl@@@Z@23@@Z
  ?UnrefNonInlined@Status@lts_20230802@absl@@CAX_K@Z
  ?FastInt32ToBufferLeft@strings@tsl@@YA_KHPEAD@Z
  ?FastInt64ToBufferLeft@strings@tsl@@YA_K_JPEAD@Z
  ?StrCat@strings@tsl@@YA?AV?$basic_string@DU?$char_traits@D@std@@V?$allocator@D@2@@std@@AEBVAlphaNum@12@@Z
  ?StrCat@strings@tsl@@YA?AV?$basic_string@DU?$char_traits@D@std@@V?$allocator@D@2@@std@@AEBVAlphaNum@12@0@Z
  ?StrCat@strings@tsl@@YA?AV?$basic_string@DU?$char_traits@D@std@@V?$allocator@D@2@@std@@AEBVAlphaNum@12@00@Z
  ?DestructorOutOfLine@TensorShapeRep@tensorflow@@AEAAXXZ
  ??0?$TensorShapeBase@VPartialTensorShape@tensorflow@@@tensorflow@@QEAA@XZ
  TF_SetTracingImplementation
  TF_CreateFunction
  ?make_safe@tensorflow@@YA?AV?$unique_ptr@UTSL_Status@@UTFStatusDeleter@detail@tensorflow@@@std@@PEAUTSL_Status@@@Z
  ?EagerTensor_CheckExact@@YA_NPEBU_object@@@Z
  ?EagerTensor_Handle@@YAPEAUTFE_TensorHandle@@PEBU_object@@@Z
  ?TFE_TensorHandleToNumpy@tensorflow@@YAPEAU_object@@PEAUTFE_TensorHandle@@PEAUTSL_Status@@@Z
  ?Lookup@PyExceptionRegistry@tensorflow@@SAPEAU_object@@W4TSL_Code@@@Z

;_pywrap_util_port
  ?IsGoogleCudaEnabled@tensorflow@@YA_NXZ
  ?IsBuiltWithROCm@tensorflow@@YA_NXZ
  ?IsBuiltWithXLA@tensorflow@@YA_NXZ
  ?IsBuiltWithNvcc@tensorflow@@YA_NXZ
  ?GpuSupportsHalfMatMulAndConv@tensorflow@@YA_NXZ
  ?IsMklEnabled@tensorflow@@YA_NXZ

;_pywrap_record_io
  ??BCord@lts_20230802@absl@@QEBA?AV?$basic_string@DU?$char_traits@D@std@@V?$allocator@D@2@@std@@XZ
  ??0Status@lts_20230802@absl@@QEAA@W4StatusCode@12@V?$basic_string_view@DU?$char_traits@D@std@@@std@@@Z
  ?raw_code@Status@lts_20230802@absl@@QEBAHXZ
  ?ForEachPayload@Status@lts_20230802@absl@@QEBAXV?$FunctionRef@$$A6AXV?$basic_string_view@DU?$char_traits@D@std@@@std@@AEBVCord@lts_20230802@absl@@@Z@23@@Z
  ?UnrefNonInlined@Status@lts_20230802@absl@@CAX_K@Z
  ?OkStatus@tsl@@YA?AVStatus@lts_20230802@absl@@XZ
  ?FastUInt64ToBufferLeft@strings@tsl@@YA_K_KPEAD@Z
  ?StrCat@strings@tsl@@YA?AV?$basic_string@DU?$char_traits@D@std@@V?$allocator@D@2@@std@@AEBVAlphaNum@12@@Z
  ?StrCat@strings@tsl@@YA?AV?$basic_string@DU?$char_traits@D@std@@V?$allocator@D@2@@std@@AEBVAlphaNum@12@0@Z
  ?IsOutOfRange@errors@tsl@@YA_NAEBVStatus@lts_20230802@absl@@@Z
  ?Default@Env@tsl@@SAPEAV12@XZ
  ?NewRandomAccessFile@Env@tsl@@QEAA?AVStatus@lts_20230802@absl@@AEBV?$basic_string@DU?$char_traits@D@std@@V?$allocator@D@2@@std@@PEAV?$unique_ptr@VRandomAccessFile@tsl@@U?$default_delete@VRandomAccessFile@tsl@@@std@@@7@@Z
  ?NewWritableFile@Env@tsl@@QEAA?AVStatus@lts_20230802@absl@@AEBV?$basic_string@DU?$char_traits@D@std@@V?$allocator@D@2@@std@@PEAV?$unique_ptr@VWritableFile@tsl@@U?$default_delete@VWritableFile@tsl@@@std@@@7@@Z
  ?CreateRecordReaderOptions@RecordReaderOptions@io@tsl@@SA?AU123@AEBV?$basic_string@DU?$char_traits@D@std@@V?$allocator@D@2@@std@@@Z
  ??0RecordReader@io@tsl@@QEAA@PEAVRandomAccessFile@2@AEBURecordReaderOptions@12@@Z
  ?ReadRecord@RecordReader@io@tsl@@QEAA?AVStatus@lts_20230802@absl@@PEA_KPEAVtstring@3@@Z
  ?CreateRecordWriterOptions@RecordWriterOptions@io@tsl@@SA?AU123@AEBV?$basic_string@DU?$char_traits@D@std@@V?$allocator@D@2@@std@@@Z
  ??0RecordWriter@io@tsl@@QEAA@PEAVWritableFile@2@AEBURecordWriterOptions@12@@Z
  ??1RecordWriter@io@tsl@@QEAA@XZ
  ?WriteRecord@RecordWriter@io@tsl@@QEAA?AVStatus@lts_20230802@absl@@V?$basic_string_view@DU?$char_traits@D@std@@@std@@@Z
  ?Flush@RecordWriter@io@tsl@@QEAA?AVStatus@lts_20230802@absl@@XZ
  ?Close@RecordWriter@io@tsl@@QEAA?AVStatus@lts_20230802@absl@@XZ
  ?Lookup@PyExceptionRegistry@tensorflow@@SAPEAU_object@@W4TSL_Code@@@Z

;_pywrap_stacktrace_handler
  ?InstallStacktraceHandler@testing@tsl@@YAXXZ

;_tape
  ??BCord@lts_20230802@absl@@QEBA?AV?$basic_string@DU?$char_traits@D@std@@V?$allocator@D@2@@std@@XZ
  ?raw_code@Status@lts_20230802@absl@@QEBAHXZ
  ?ForEachPayload@Status@lts_20230802@absl@@QEBAXV?$FunctionRef@$$A6AXV?$basic_string_view@DU?$char_traits@D@std@@@std@@AEBVCord@lts_20230802@absl@@@Z@23@@Z
  ?UnrefNonInlined@Status@lts_20230802@absl@@CAX_K@Z
  ?OkStatus@tsl@@YA?AVStatus@lts_20230802@absl@@XZ
  ?Register@GradientRegistry@gradients@tensorflow@@QEAA?AVStatus@lts_20230802@absl@@AEBV?$basic_string@DU?$char_traits@D@std@@V?$allocator@D@2@@std@@V?$function@$$A6APEAVGradientFunction@gradients@tensorflow@@AEBUForwardOperation@23@@Z@8@@Z
  ??1TapeTensor@gradients@tensorflow@@QEAA@XZ
  ?Watch@Tape@gradients@tensorflow@@QEAAXPEBVAbstractTensorHandle@3@@Z
  ?ComputeGradient@Tape@gradients@tensorflow@@QEAA?AVStatus@lts_20230802@absl@@PEAVAbstractContext@3@V?$Span@QEAVAbstractTensorHandle@tensorflow@@@56@11V?$Span@PEAVAbstractTensorHandle@tensorflow@@@56@@Z
  ?AddRegisterer@gradients@tensorflow@@YAPEAVGradientFunction@12@AEBUForwardOperation@12@@Z
  ?ExpRegisterer@gradients@tensorflow@@YAPEAVGradientFunction@12@AEBUForwardOperation@12@@Z
  ?MatMulRegisterer@gradients@tensorflow@@YAPEAVGradientFunction@12@AEBUForwardOperation@12@@Z
  ?NegRegisterer@gradients@tensorflow@@YAPEAVGradientFunction@12@AEBUForwardOperation@12@@Z
  ?SubRegisterer@gradients@tensorflow@@YAPEAVGradientFunction@12@AEBUForwardOperation@12@@Z
  ?MulRegisterer@gradients@tensorflow@@YAPEAVGradientFunction@12@AEBUForwardOperation@12@@Z
  ?Log1pRegisterer@gradients@tensorflow@@YAPEAVGradientFunction@12@AEBUForwardOperation@12@@Z
  ?DivNoNanRegisterer@gradients@tensorflow@@YAPEAVGradientFunction@12@AEBUForwardOperation@12@@Z
  ?ReluRegisterer@gradients@tensorflow@@YAPEAVGradientFunction@12@AEBUForwardOperation@12@@Z
  ?SparseSoftmaxCrossEntropyWithLogitsRegisterer@gradients@tensorflow@@YAPEAVGradientFunction@12@AEBUForwardOperation@12@@Z
  ??0TapeContext@gradients@tensorflow@@QEAA@PEAVAbstractContext@2@PEAVTape@12@AEBVGradientRegistry@12@@Z
  ?Lookup@PyExceptionRegistry@tensorflow@@SAPEAU_object@@W4TSL_Code@@@Z
  ?kEmptyGroup@container_internal@lts_20230802@absl@@3QBW4ctrl_t@123@B

;_pywrap_toco_api
  ?TocoConvert@toco@@YAPEAU_object@@PEAU2@00_N01@Z
  ?MlirQuantizeModel@toco@@YAPEAU_object@@PEAU2@_N1HHH11001@Z
  ?MlirSparsifyModel@toco@@YAPEAU_object@@PEAU2@@Z
  ?RegisterCustomOpdefs@toco@@YAPEAU_object@@PEAU2@@Z
  ?RetrieveCollectedErrors@toco@@YA?BV?$vector@V?$basic_string@DU?$char_traits@D@std@@V?$allocator@D@2@@std@@V?$allocator@V?$basic_string@DU?$char_traits@D@std@@V?$allocator@D@2@@std@@@2@@std@@XZ
  ?FlatBufferFileToMlir@toco@@YA?AV?$basic_string@DU?$char_traits@D@std@@V?$allocator@D@2@@std@@AEBV23@_N@Z

;_pywrap_traceme
  ?StrAppend@lts_20230802@absl@@YAXPEAV?$basic_string@DU?$char_traits@D@std@@V?$allocator@D@2@@std@@AEBVAlphaNum@12@111@Z
  ??1LogMessageFatal@internal@tsl@@UEAA@XZ
  ?Record@TraceMeRecorder@profiler@tsl@@SAX$$QEAUEvent@123@@Z
  ?GetCurrentTimeNanos@profiler@tsl@@YA_JXZ

;_pywrap_mlir
  ?make_safe@tensorflow@@YA?AV?$unique_ptr@UTSL_Status@@UTFStatusDeleter@detail@tensorflow@@@std@@PEAUTSL_Status@@@Z
  ?ImportGraphDef@tensorflow@@YA?AV?$basic_string@DU?$char_traits@D@std@@V?$allocator@D@2@@std@@AEBV23@0_NPEAUTSL_Status@@@Z
  ?ImportFunction@tensorflow@@YA?AV?$basic_string@DU?$char_traits@D@std@@V?$allocator@D@2@@std@@AEBV23@0_NPEAUTFE_Context@@PEAUTSL_Status@@@Z
  ?ImportGraphDef@tensorflow@@YA?AV?$basic_string@DU?$char_traits@D@std@@V?$allocator@D@2@@std@@AEBV23@0_NV?$basic_string_view@DU?$char_traits@D@std@@@3@222PEAUTSL_Status@@@Z
  ?ExperimentalConvertSavedModelToMlir@tensorflow@@YA?AV?$basic_string@DU?$char_traits@D@std@@V?$allocator@D@2@@std@@AEBV23@0_NPEAUTSL_Status@@@Z
  ?ExperimentalConvertSavedModelV1ToMlirLite@tensorflow@@YA?AV?$basic_string@DU?$char_traits@D@std@@V?$allocator@D@2@@std@@AEBV23@00_N1PEAUTSL_Status@@@Z
  ?ExperimentalConvertSavedModelV1ToMlir@tensorflow@@YA?AV?$basic_string@DU?$char_traits@D@std@@V?$allocator@D@2@@std@@AEBV23@00_N111PEAUTSL_Status@@@Z
  ?ExperimentalRunPassPipeline@tensorflow@@YA?AV?$basic_string@DU?$char_traits@D@std@@V?$allocator@D@2@@std@@AEBV23@0_NPEAUTSL_Status@@@Z
  ?ExperimentalWriteBytecode@tensorflow@@YAXAEBV?$basic_string@DU?$char_traits@D@std@@V?$allocator@D@2@@std@@0PEAUTSL_Status@@@Z
  ?ExperimentalTFLiteToTosaBytecode@tensorflow@@YAXAEBV?$basic_string@DU?$char_traits@D@std@@V?$allocator@D@2@@std@@0_NAEBV?$vector@V?$basic_string@DU?$char_traits@D@std@@V?$allocator@D@2@@std@@V?$allocator@V?$basic_string@DU?$char_traits@D@std@@V?$allocator@D@2@@std@@@2@@3@2PEAUTSL_Status@@@Z
  ??BCord@lts_20230802@absl@@QEBA?AV?$basic_string@DU?$char_traits@D@std@@V?$allocator@D@2@@std@@XZ
  ?ForEachPayload@Status@lts_20230802@absl@@QEBAXV?$FunctionRef@$$A6AXV?$basic_string_view@DU?$char_traits@D@std@@@std@@AEBVCord@lts_20230802@absl@@@Z@23@@Z
  ?Lookup@PyExceptionRegistry@tensorflow@@SAPEAU_object@@W4TSL_Code@@@Z

;_pywrap_utils
  ?DefaultProtocol@data@tensorflow@@YA?AV?$basic_string@DU?$char_traits@D@std@@V?$allocator@D@2@@std@@XZ

;_pywrap_python_tensor_converter
  ?TFE_GetPythonString@@YAPEBDPEAU_object@@@Z
  ?Convert@PythonTensorConverter@tensorflow@@QEBA?AV?$unique_ptr@U_object@@UPyDecrefDeleter@detail@tensorflow@@@std@@PEAU_object@@AEAW4DataType@2@PEA_N@Z

;_op_def_util
  ?ParseFromString@MessageLite@protobuf@google@@QEAA_NAEBV?$basic_string@DU?$char_traits@D@std@@V?$allocator@D@2@@std@@@Z
  ??1AttrValue@tensorflow@@UEAA@XZ
  ??0AttrValue@tensorflow@@IEAA@PEAVArena@protobuf@google@@_N@Z
  ?AttributeTypeFromName@tensorflow@@YA?AW4AttributeType@1@AEBV?$basic_string@DU?$char_traits@D@std@@V?$allocator@D@2@@std@@@Z
  ?ConvertPyObjectToAttributeType@tensorflow@@YA?AV?$unique_ptr@U_object@@UPyDecrefDeleter@detail@tensorflow@@@std@@PEAU_object@@W4AttributeType@1@@Z
  ?AttrValueToPyObject@tensorflow@@YA?AV?$unique_ptr@U_object@@UPyDecrefDeleter@detail@tensorflow@@@std@@AEBVAttrValue@1@@Z
  ??_7AttrValue@tensorflow@@6B@

;_pywrap_debug_events_writer
  ?StrCat@lts_20230802@absl@@YA?AV?$basic_string@DU?$char_traits@D@std@@V?$allocator@D@2@@std@@AEBVAlphaNum@12@0@Z
  ?StrCat@lts_20230802@absl@@YA?AV?$basic_string@DU?$char_traits@D@std@@V?$allocator@D@2@@std@@AEBVAlphaNum@12@000@Z
  ??0LogMessageFatal@internal@tsl@@QEAA@PEBDH@Z
  ??1LogMessageFatal@internal@tsl@@UEAA@XZ
  ?UnrefNonInlined@Status@lts_20230802@absl@@CAX_K@Z
  ?TfCheckOpHelperOutOfLine@tsl@@YAPEAV?$basic_string@DU?$char_traits@D@std@@V?$allocator@D@2@@std@@AEBVStatus@lts_20230802@absl@@PEBD@Z
  ?Printf@strings@tsl@@YA?AV?$basic_string@DU?$char_traits@D@std@@V?$allocator@D@2@@std@@PEBDZZ
  ?GetDebugEventsWriter@DebugEventsWriter@tfdbg@tensorflow@@SAPEAV123@AEBV?$basic_string@DU?$char_traits@D@std@@V?$allocator@D@2@@std@@0_J@Z
  ?LookUpDebugEventsWriter@DebugEventsWriter@tfdbg@tensorflow@@SA?AVStatus@lts_20230802@absl@@AEBV?$basic_string@DU?$char_traits@D@std@@V?$allocator@D@2@@std@@PEAPEAV123@@Z
  ?Init@DebugEventsWriter@tfdbg@tensorflow@@QEAA?AVStatus@lts_20230802@absl@@XZ
  ?WriteSerializedNonExecutionDebugEvent@DebugEventsWriter@tfdbg@tensorflow@@QEAAXAEBV?$basic_string@DU?$char_traits@D@std@@V?$allocator@D@2@@std@@W4DebugEventFileType@23@@Z
  ?WriteSerializedExecutionDebugEvent@DebugEventsWriter@tfdbg@tensorflow@@QEAAXAEBV?$basic_string@DU?$char_traits@D@std@@V?$allocator@D@2@@std@@W4DebugEventFileType@23@@Z
  ?RegisterDeviceAndGetId@DebugEventsWriter@tfdbg@tensorflow@@QEAAHAEBV?$basic_string@DU?$char_traits@D@std@@V?$allocator@D@2@@std@@@Z
  ?FlushNonExecutionFiles@DebugEventsWriter@tfdbg@tensorflow@@QEAA?AVStatus@lts_20230802@absl@@XZ
  ?FlushExecutionFiles@DebugEventsWriter@tfdbg@tensorflow@@QEAA?AVStatus@lts_20230802@absl@@XZ
  ?Close@DebugEventsWriter@tfdbg@tensorflow@@QEAA?AVStatus@lts_20230802@absl@@XZ

;_pywrap_tf_item
  ?ParseFromString@MessageLite@protobuf@google@@QEAA_NAEBV?$basic_string@DU?$char_traits@D@std@@V?$allocator@D@2@@std@@@Z
  ?SerializeAsString@MessageLite@protobuf@google@@QEBA?AV?$basic_string@DU?$char_traits@D@std@@V?$allocator@D@2@@std@@XZ
  ?AddOutOfLineHelper@RepeatedPtrFieldBase@internal@protobuf@google@@AEAAPEAXPEAX@Z
  ?Get@?$RepeatedPtrField@V?$basic_string@DU?$char_traits@D@std@@V?$allocator@D@2@@std@@@protobuf@google@@QEBAAEBV?$basic_string@DU?$char_traits@D@std@@V?$allocator@D@2@@std@@H@Z
  ??$CreateMaybeMessage@VNodeDef@tensorflow@@$$V@Arena@protobuf@google@@CAPEAVNodeDef@tensorflow@@PEAV012@@Z
  ?CopyFrom@NodeDef@tensorflow@@QEAAXAEBV12@@Z
  ??1GraphDef@tensorflow@@UEAA@XZ
  ??0GraphDef@tensorflow@@QEAA@AEBV01@@Z
  ?CopyFrom@GraphDef@tensorflow@@QEAAXAEBV12@@Z
  ?InternalSwap@GraphDef@tensorflow@@AEAAXPEAV12@@Z
  ??0GraphDef@tensorflow@@IEAA@PEAVArena@protobuf@google@@_N@Z
  ??BCord@lts_20230802@absl@@QEBA?AV?$basic_string@DU?$char_traits@D@std@@V?$allocator@D@2@@std@@XZ
  ??1LogMessageFatal@internal@tsl@@UEAA@XZ
  ??0Status@lts_20230802@absl@@QEAA@W4StatusCode@12@V?$basic_string_view@DU?$char_traits@D@std@@@std@@@Z
  ?raw_code@Status@lts_20230802@absl@@QEBAHXZ
  ?ForEachPayload@Status@lts_20230802@absl@@QEBAXV?$FunctionRef@$$A6AXV?$basic_string_view@DU?$char_traits@D@std@@@std@@AEBVCord@lts_20230802@absl@@@Z@23@@Z
  ?UnrefNonInlined@Status@lts_20230802@absl@@CAX_K@Z
  ?NullTerminatedMessage@tsl@@YAPEBDAEBVStatus@lts_20230802@absl@@@Z
  ?StrCat@strings@tsl@@YA?AV?$basic_string@DU?$char_traits@D@std@@V?$allocator@D@2@@std@@AEBVAlphaNum@12@@Z
  ?DestructorOutOfLine@TensorShapeRep@tensorflow@@AEAAXXZ
  ?SlowCopyFrom@TensorShapeRep@tensorflow@@AEAAXAEBV12@@Z
  ?Hash64@tsl@@YA_KPEBD_K1@Z
  ??1Tensor@tensorflow@@QEAA@XZ
  ??0AttrSlice@tensorflow@@QEAA@AEBVNodeDef@1@@Z
  ?NameRangesForNode@tensorflow@@YA?AVStatus@lts_20230802@absl@@AEBVAttrSlice@1@AEBVOpDef@1@PEAV?$FlatMap@V?$basic_string_view@DU?$char_traits@D@std@@@std@@U?$pair@HH@2@U?$hash@V?$basic_string_view@DU?$char_traits@D@std@@@std@@X@tsl@@U?$equal_to@V?$basic_string_view@DU?$char_traits@D@std@@@std@@@2@@gtl@tsl@@2@Z
  ?LookUpOpDef@OpRegistryInterface@tensorflow@@QEBA?AVStatus@lts_20230802@absl@@AEBV?$basic_string@DU?$char_traits@D@std@@V?$allocator@D@2@@std@@PEAPEBVOpDef@2@@Z
  ?Global@OpRegistry@tensorflow@@SAPEAV12@XZ
  ??1QueueRunnerDef@tensorflow@@UEAA@XZ
  ??0QueueRunnerDef@tensorflow@@QEAA@AEBV01@@Z
  ?MainOpsFanin@GrapplerItem@grappler@tensorflow@@QEBA?AV?$vector@PEBVNodeDef@tensorflow@@V?$allocator@PEBVNodeDef@tensorflow@@@std@@@std@@XZ
  ?EnqueueOpsFanin@GrapplerItem@grappler@tensorflow@@QEBA?AV?$vector@PEBVNodeDef@tensorflow@@V?$allocator@PEBVNodeDef@tensorflow@@@std@@@std@@XZ
  ??1OpInfo_TensorProperties@tensorflow@@UEAA@XZ
  ?InferStatically@GraphProperties@grappler@tensorflow@@QEAA?AVStatus@lts_20230802@absl@@_N000@Z
  ?GetOutputProperties@GraphProperties@grappler@tensorflow@@QEBAAEBV?$vector@VOpInfo_TensorProperties@tensorflow@@V?$allocator@VOpInfo_TensorProperties@tensorflow@@@std@@@std@@AEBV?$basic_string@DU?$char_traits@D@std@@V?$allocator@D@2@@5@@Z
  ?GrapplerItemFromMetaGraphDef@grappler@tensorflow@@YA?AV?$unique_ptr@UGrapplerItem@grappler@tensorflow@@U?$default_delete@UGrapplerItem@grappler@tensorflow@@@std@@@std@@AEBV?$basic_string@DU?$char_traits@D@std@@V?$allocator@D@2@@4@AEBVMetaGraphDef@2@AEBUItemConfig@12@@Z
  ?ParseTensorName@tensorflow@@YA?AUTensorId@1@V?$basic_string_view@DU?$char_traits@D@std@@@std@@@Z
  ?TopologicalSort@grappler@tensorflow@@YA?AVStatus@lts_20230802@absl@@PEAVGraphDef@2@@Z
  ??1MetaGraphDef@tensorflow@@UEAA@XZ
  ??0MetaGraphDef@tensorflow@@IEAA@PEAVArena@protobuf@google@@_N@Z
  ?Lookup@PyExceptionRegistry@tensorflow@@SAPEAU_object@@W4TSL_Code@@@Z
  ??_7GraphDef@tensorflow@@6B@
  ?kEmptyGroup@container_internal@lts_20230802@absl@@3QBW4ctrl_t@123@B
  ??_7MetaGraphDef@tensorflow@@6B@

;_pywrap_python_api_parameter_converter
  ?ConvertPythonAPIParameters@tensorflow@@YA_NAEBVPythonAPIInfo@1@AEBVPythonTensorConverter@1@V?$Span@PEAU_object@@@lts_20230802@absl@@PEAUInferredAttributes@21@@Z
  ?CopyPythonAPITensorLists@tensorflow@@YA_NAEBVPythonAPIInfo@1@V?$Span@PEAU_object@@@lts_20230802@absl@@@Z

;_errors_test_helper
  ??BCord@lts_20230802@absl@@QEBA?AV?$basic_string@DU?$char_traits@D@std@@V?$allocator@D@2@@std@@XZ
  ??0Cord@lts_20230802@absl@@AEAA@V?$basic_string_view@DU?$char_traits@D@std@@@std@@W4MethodIdentifier@CordzUpdateTracker@cord_internal@12@@Z
  ?DestroyCordSlow@Cord@lts_20230802@absl@@AEAAXXZ
  ??0Status@lts_20230802@absl@@QEAA@W4StatusCode@12@V?$basic_string_view@DU?$char_traits@D@std@@@std@@@Z
  ?raw_code@Status@lts_20230802@absl@@QEBAHXZ
  ?SetPayload@Status@lts_20230802@absl@@QEAAXV?$basic_string_view@DU?$char_traits@D@std@@@std@@VCord@23@@Z
  ?ForEachPayload@Status@lts_20230802@absl@@QEBAXV?$FunctionRef@$$A6AXV?$basic_string_view@DU?$char_traits@D@std@@@std@@AEBVCord@lts_20230802@absl@@@Z@23@@Z
  ?UnrefNonInlined@Status@lts_20230802@absl@@CAX_K@Z
  ?Lookup@PyExceptionRegistry@tensorflow@@SAPEAU_object@@W4TSL_Code@@@Z

;_pywrap_cost_analyzer
  ?ParseFromString@MessageLite@protobuf@google@@QEAA_NAEBV?$basic_string@DU?$char_traits@D@std@@V?$allocator@D@2@@std@@@Z
  ?raw_code@Status@lts_20230802@absl@@QEBAHXZ
  ?UnrefNonInlined@Status@lts_20230802@absl@@CAX_K@Z
  ?NullTerminatedMessage@tsl@@YAPEBDAEBVStatus@lts_20230802@absl@@@Z
  ??1Tensor@tensorflow@@QEAA@XZ
  ??1ThreadPool@thread@tsl@@QEAA@XZ
  ?GrapplerItemFromMetaGraphDef@grappler@tensorflow@@YA?AV?$unique_ptr@UGrapplerItem@grappler@tensorflow@@U?$default_delete@UGrapplerItem@grappler@tensorflow@@@std@@@std@@AEBV?$basic_string@DU?$char_traits@D@std@@V?$allocator@D@2@@4@AEBVMetaGraphDef@2@AEBUItemConfig@12@@Z
  ??1MetaGraphDef@tensorflow@@UEAA@XZ
  ??0MetaGraphDef@tensorflow@@IEAA@PEAVArena@protobuf@google@@_N@Z
  ??1OpPerformanceList@tensorflow@@UEAA@XZ
  ?Initialize@AnalyticalCostEstimator@grappler@tensorflow@@UEAA?AVStatus@lts_20230802@absl@@AEBUGrapplerItem@23@@Z
  ?PredictCosts@AnalyticalCostEstimator@grappler@tensorflow@@UEBA?AVStatus@lts_20230802@absl@@AEBVGraphDef@3@PEAVRunMetadata@3@PEAUCosts@23@@Z
  ?Initialize@MeasuringCostEstimator@grappler@tensorflow@@UEAA?AVStatus@lts_20230802@absl@@AEBUGrapplerItem@23@@Z
  ?PredictCosts@MeasuringCostEstimator@grappler@tensorflow@@UEBA?AVStatus@lts_20230802@absl@@AEBVGraphDef@3@PEAVRunMetadata@3@PEAUCosts@23@@Z
  ??0CostAnalyzer@grappler@tensorflow@@QEAA@AEBUGrapplerItem@12@PEAVCluster@12@AEBV?$basic_string@DU?$char_traits@D@std@@V?$allocator@D@2@@std@@@Z
  ?GenerateReport@CostAnalyzer@grappler@tensorflow@@QEAA?AVStatus@lts_20230802@absl@@AEAV?$basic_ostream@DU?$char_traits@D@std@@@std@@_N1@Z
  ??_7MetaGraphDef@tensorflow@@6B@

;_op_def_library_pybind
  ?ThrowStdOutOfRange@base_internal@lts_20230802@absl@@YAXPEBD@Z
  ?CityHash64@hash_internal@lts_20230802@absl@@YA_KPEBD_K@Z
  ?CombineLargeContiguousImpl64@MixingHashState@hash_internal@lts_20230802@absl@@CA_K_KPEBE0@Z
  ?FastIntToBuffer@numbers_internal@lts_20230802@absl@@YAPEADHPEAD@Z
  ?FastIntToBuffer@numbers_internal@lts_20230802@absl@@YAPEAD_JPEAD@Z
  ?CatPieces@strings_internal@lts_20230802@absl@@YA?AV?$basic_string@DU?$char_traits@D@std@@V?$allocator@D@2@@std@@V?$initializer_list@V?$basic_string_view@DU?$char_traits@D@std@@@std@@@5@@Z
  ?StrCat@lts_20230802@absl@@YA?AV?$basic_string@DU?$char_traits@D@std@@V?$allocator@D@2@@std@@AEBVAlphaNum@12@0@Z
  ?StrCat@lts_20230802@absl@@YA?AV?$basic_string@DU?$char_traits@D@std@@V?$allocator@D@2@@std@@AEBVAlphaNum@12@00@Z
  ?StrCat@lts_20230802@absl@@YA?AV?$basic_string@DU?$char_traits@D@std@@V?$allocator@D@2@@std@@AEBVAlphaNum@12@000@Z
  ?StrAppend@lts_20230802@absl@@YAXPEAV?$basic_string@DU?$char_traits@D@std@@V?$allocator@D@2@@std@@AEBVAlphaNum@12@@Z
  ??$find_first_non_full@X@container_internal@lts_20230802@absl@@YA?AUFindInfo@012@AEBVCommonFields@012@_K@Z
  ?DropDeletesWithoutResize@container_internal@lts_20230802@absl@@YAXAEAVCommonFields@123@AEBUPolicyFunctions@123@PEAX@Z
  ?Set@ArenaStringPtr@internal@protobuf@google@@QEAAX$$QEAV?$basic_string@DU?$char_traits@D@std@@V?$allocator@D@2@@std@@PEAVArena@34@@Z
  ?ParseFromString@MessageLite@protobuf@google@@QEAA_NAEBV?$basic_string@DU?$char_traits@D@std@@V?$allocator@D@2@@std@@@Z
  ?SerializeToString@MessageLite@protobuf@google@@QEBA_NPEAV?$basic_string@DU?$char_traits@D@std@@V?$allocator@D@2@@std@@@Z
  ?AddOutOfLineHelper@RepeatedPtrFieldBase@internal@protobuf@google@@AEAAPEAXPEAX@Z
  ?Add@?$RepeatedPtrField@V?$basic_string@DU?$char_traits@D@std@@V?$allocator@D@2@@std@@@protobuf@google@@QEAAX$$QEAV?$basic_string@DU?$char_traits@D@std@@V?$allocator@D@2@@std@@@Z
  ?begin@?$RepeatedPtrField@V?$basic_string@DU?$char_traits@D@std@@V?$allocator@D@2@@std@@@protobuf@google@@QEBA?AV?$RepeatedPtrIterator@$$CBV?$basic_string@DU?$char_traits@D@std@@V?$allocator@D@2@@std@@@internal@23@XZ
  ?end@?$RepeatedPtrField@V?$basic_string@DU?$char_traits@D@std@@V?$allocator@D@2@@std@@@protobuf@google@@QEBA?AV?$RepeatedPtrIterator@$$CBV?$basic_string@DU?$char_traits@D@std@@V?$allocator@D@2@@std@@@internal@23@XZ
  ?Add@?$RepeatedField@_N@protobuf@google@@QEAAXAEB_N@Z
  ?size@?$RepeatedField@H@protobuf@google@@QEBAHXZ
  ?Add@?$RepeatedField@H@protobuf@google@@QEAAXAEBH@Z
  ?begin@?$RepeatedField@H@protobuf@google@@QEBA?AV?$RepeatedIterator@$$CBH@internal@23@XZ
  ?end@?$RepeatedField@H@protobuf@google@@QEBA?AV?$RepeatedIterator@$$CBH@internal@23@XZ
  ?Add@?$RepeatedField@_J@protobuf@google@@QEAAXAEB_J@Z
  ?Add@?$RepeatedField@M@protobuf@google@@QEAAXAEBM@Z
  ?DebugString@Message@protobuf@google@@QEBA?AV?$basic_string@DU?$char_traits@D@std@@V?$allocator@D@2@@std@@XZ
  ??$CreateMaybeMessage@VTensorShapeProto@tensorflow@@$$V@Arena@protobuf@google@@CAPEAVTensorShapeProto@tensorflow@@PEAV012@@Z
  ??$CreateMaybeMessage@VTensorProto@tensorflow@@$$V@Arena@protobuf@google@@CAPEAVTensorProto@tensorflow@@PEAV012@@Z
  ??$CreateMaybeMessage@VAttrValue_ListValue@tensorflow@@$$V@Arena@protobuf@google@@CAPEAVAttrValue_ListValue@tensorflow@@PEAV012@@Z
  ??1AttrValue@tensorflow@@UEAA@XZ
  ?CopyFrom@AttrValue@tensorflow@@QEAAXAEBV12@@Z
  ?InternalSwap@AttrValue@tensorflow@@AEAAXPEAV12@@Z
  ??0AttrValue@tensorflow@@IEAA@PEAVArena@protobuf@google@@_N@Z
  ?clear_value@AttrValue@tensorflow@@QEAAXXZ
  ?raw_code@Status@lts_20230802@absl@@QEBAHXZ
  ?UnrefNonInlined@Status@lts_20230802@absl@@CAX_K@Z
  ?NullTerminatedMessage@tsl@@YAPEBDAEBVStatus@lts_20230802@absl@@@Z
  ?CheckOpDeprecation@tensorflow@@YA?AVStatus@lts_20230802@absl@@AEBVOpDef@1@H@Z
  ?LookUpOpDef@OpRegistryInterface@tensorflow@@QEBA?AVStatus@lts_20230802@absl@@AEBV?$basic_string@DU?$char_traits@D@std@@V?$allocator@D@2@@std@@PEAPEBVOpDef@2@@Z
  ?Global@OpRegistry@tensorflow@@SAPEAV12@XZ
  ?AttributeTypeFromName@tensorflow@@YA?AW4AttributeType@1@AEBV?$basic_string@DU?$char_traits@D@std@@V?$allocator@D@2@@std@@@Z
  ?ConvertPyObjectToAttributeType@tensorflow@@YA?AV?$unique_ptr@U_object@@UPyDecrefDeleter@detail@tensorflow@@@std@@PEAU_object@@W4AttributeType@1@@Z
  ?DataTypeToPyObject@tensorflow@@YA?AV?$unique_ptr@U_object@@UPyDecrefDeleter@detail@tensorflow@@@std@@AEBW4DataType@1@@Z
  ?kSeed@MixingHashState@hash_internal@lts_20230802@absl@@0QEBXEB
  ?kEmptyGroup@container_internal@lts_20230802@absl@@3QBW4ctrl_t@123@B
  ?fixed_address_empty_string@internal@protobuf@google@@3V?$ExplicitlyConstructed@V?$basic_string@DU?$char_traits@D@std@@V?$allocator@D@2@@std@@$07@123@A
  ?_AttrValue_default_instance_@tensorflow@@3UAttrValueDefaultTypeInternal@1@A
  ?_AttrValue_ListValue_default_instance_@tensorflow@@3UAttrValue_ListValueDefaultTypeInternal@1@A
  ??_7AttrValue@tensorflow@@6B@
  ?_OpDef_AttrDef_default_instance_@tensorflow@@3UOpDef_AttrDefDefaultTypeInternal@1@A

;_proto_comparators
  ?ParseFromString@MessageLite@protobuf@google@@QEAA_NAEBV?$basic_string@DU?$char_traits@D@std@@V?$allocator@D@2@@std@@@Z
  ?FindFieldByName@Descriptor@protobuf@google@@QEBAPEBVFieldDescriptor@23@AEBV?$basic_string@DU?$char_traits@D@std@@V?$allocator@D@2@@std@@@Z
  ?GetMetadata@FunctionDefLibrary@tensorflow@@UEBA?AUMetadata@protobuf@google@@XZ
  ?GetMetadata@FunctionDef@tensorflow@@UEBA?AUMetadata@protobuf@google@@XZ
  ??1GraphDef@tensorflow@@UEAA@XZ
  ??0GraphDef@tensorflow@@IEAA@PEAVArena@protobuf@google@@_N@Z
  ?GetMetadata@GraphDef@tensorflow@@UEBA?AUMetadata@protobuf@google@@XZ
  ??0Status@lts_20230802@absl@@QEAA@W4StatusCode@12@V?$basic_string_view@DU?$char_traits@D@std@@@std@@@Z
  ?raw_code@Status@lts_20230802@absl@@QEBAHXZ
  ?UnrefNonInlined@Status@lts_20230802@absl@@CAX_K@Z
  ?NullTerminatedMessage@tsl@@YAPEBDAEBVStatus@lts_20230802@absl@@@Z
  ?StrCat@strings@tsl@@YA?AV?$basic_string@DU?$char_traits@D@std@@V?$allocator@D@2@@std@@AEBVAlphaNum@12@@Z
  ??0SimpleFieldComparator@util@protobuf@google@@QEAA@XZ
  ??1SimpleFieldComparator@util@protobuf@google@@UEAA@XZ
  ?SimpleCompare@SimpleFieldComparator@util@protobuf@google@@IEAA?AW4ComparisonResult@FieldComparator@234@AEBVMessage@34@0PEBVFieldDescriptor@34@HHPEBVFieldContext@234@@Z
  ??0MessageDifferencer@util@protobuf@google@@QEAA@XZ
  ??1MessageDifferencer@util@protobuf@google@@QEAA@XZ
  ?TreatAsSet@MessageDifferencer@util@protobuf@google@@QEAAXPEBVFieldDescriptor@34@@Z
  ?set_field_comparator@MessageDifferencer@util@protobuf@google@@QEAAXPEAVFieldComparator@234@@Z
  ?Compare@MessageDifferencer@util@protobuf@google@@QEAA_NAEBVMessage@34@0@Z
  ?_FunctionDef_default_instance_@tensorflow@@3UFunctionDefDefaultTypeInternal@1@A
  ?_FunctionDefLibrary_default_instance_@tensorflow@@3UFunctionDefLibraryDefaultTypeInternal@1@A
  ?_GraphDef_default_instance_@tensorflow@@3UGraphDefDefaultTypeInternal@1@A
  ??_7GraphDef@tensorflow@@6B@

;_pywrap_python_api_info
  ?UnrefNonInlined@Status@lts_20230802@absl@@CAX_K@Z
  ?ToStringSlow@Status@lts_20230802@absl@@AEBA?AV?$basic_string@DU?$char_traits@D@std@@V?$allocator@D@2@@std@@W4StatusToStringMode@23@@Z
  ??0PythonAPIInfo@tensorflow@@QEAA@AEBV?$basic_string@DU?$char_traits@D@std@@V?$allocator@D@2@@std@@@Z
  ?InitializeFromRegisteredOp@PythonAPIInfo@tensorflow@@QEAA?AVStatus@lts_20230802@absl@@AEBV?$basic_string@DU?$char_traits@D@std@@V?$allocator@D@2@@std@@@Z
  ?InitializeFromParamSpecs@PythonAPIInfo@tensorflow@@QEAA?AVStatus@lts_20230802@absl@@AEBV?$map@V?$basic_string@DU?$char_traits@D@std@@V?$allocator@D@2@@std@@V12@U?$less@V?$basic_string@DU?$char_traits@D@std@@V?$allocator@D@2@@std@@@2@V?$allocator@U?$pair@$$CBV?$basic_string@DU?$char_traits@D@std@@V?$allocator@D@2@@std@@V12@@std@@@2@@std@@0V?$vector@V?$basic_string@DU?$char_traits@D@std@@V?$allocator@D@2@@std@@V?$allocator@V?$basic_string@DU?$char_traits@D@std@@V?$allocator@D@2@@std@@@2@@7@PEAU_object@@@Z
  ?DebugInfo@PythonAPIInfo@tensorflow@@QEBA?AV?$basic_string@DU?$char_traits@D@std@@V?$allocator@D@2@@std@@XZ

;_pywrap_model_analyzer
  ?ParseFromString@MessageLite@protobuf@google@@QEAA_NAEBV?$basic_string@DU?$char_traits@D@std@@V?$allocator@D@2@@std@@@Z
  ?raw_code@Status@lts_20230802@absl@@QEBAHXZ
  ?UnrefNonInlined@Status@lts_20230802@absl@@CAX_K@Z
  ?NullTerminatedMessage@tsl@@YAPEBDAEBVStatus@lts_20230802@absl@@@Z
  ?GrapplerItemFromMetaGraphDef@grappler@tensorflow@@YA?AV?$unique_ptr@UGrapplerItem@grappler@tensorflow@@U?$default_delete@UGrapplerItem@grappler@tensorflow@@@std@@@std@@AEBV?$basic_string@DU?$char_traits@D@std@@V?$allocator@D@2@@4@AEBVMetaGraphDef@2@AEBUItemConfig@12@@Z
  ??1MetaGraphDef@tensorflow@@UEAA@XZ
  ??0MetaGraphDef@tensorflow@@IEAA@PEAVArena@protobuf@google@@_N@Z
  ??0ModelAnalyzer@grappler@tensorflow@@QEAA@AEBUGrapplerItem@12@@Z
  ?GenerateReport@ModelAnalyzer@grappler@tensorflow@@QEAA?AVStatus@lts_20230802@absl@@_N0AEAV?$basic_ostream@DU?$char_traits@D@std@@@std@@@Z
  ??_7MetaGraphDef@tensorflow@@6B@

;pywrap_saved_model
  ?DefineConstantsModule@python@saved_model@tensorflow@@YAXVmodule_@pybind11@@@Z
  ?DefineFingerprintingModule@python@saved_model@tensorflow@@YAXVmodule_@pybind11@@@Z
  ?DefineMetricsModule@python@saved_model@tensorflow@@YAXVmodule_@pybind11@@@Z
  ?UnrefNonInlined@Status@lts_20230802@absl@@CAX_K@Z
  ?UnrefNonInlined@Status@lts_20230802@absl@@CAX_K@Z
  ?UnrefNonInlined@Status@lts_20230802@absl@@CAX_K@Z
  ?ThrowBadStatusOrAccess@internal_statusor@lts_20230802@absl@@YAXVStatus@23@@Z
  ?ThrowBadStatusOrAccess@internal_statusor@lts_20230802@absl@@YAXVStatus@23@@Z
  ?ParseFromString@MessageLite@protobuf@google@@QEAA_NAEBV?$basic_string@DU?$char_traits@D@std@@V?$allocator@D@2@@std@@@Z
  ?SerializeAsString@MessageLite@protobuf@google@@QEBA?AV?$basic_string@DU?$char_traits@D@std@@V?$allocator@D@2@@std@@XZ
  ?SerializeAsString@MessageLite@protobuf@google@@QEBA?AV?$basic_string@DU?$char_traits@D@std@@V?$allocator@D@2@@std@@XZ
  ??1HistogramProto@tensorflow@@UEAA@XZ
  ?CopyFrom@HistogramProto@tensorflow@@QEAAXAEBV12@@Z
  ?InternalSwap@HistogramProto@tensorflow@@AEAAXPEAV12@@Z
  ??0HistogramProto@tensorflow@@IEAA@PEAVArena@protobuf@google@@_N@Z
  ??1LogMessageFatal@internal@tsl@@UEAA@XZ
  ?lock@mutex@tsl@@QEAAXXZ
  ?unlock@mutex@tsl@@QEAAXXZ
  ?Default@Env@tsl@@SAPEAV12@XZ
  ?GetFileSize@Env@tsl@@QEAA?AVStatus@lts_20230802@absl@@AEBV?$basic_string@DU?$char_traits@D@std@@V?$allocator@D@2@@std@@PEA_K@Z
  ?Add@ThreadSafeHistogram@histogram@tsl@@QEAAXN@Z
  ?EncodeToProto@ThreadSafeHistogram@histogram@tsl@@QEBAXPEAVHistogramProto@tensorflow@@_N@Z
  ??1FingerprintDef@tensorflow@@UEAA@XZ
  ??1FingerprintDef@tensorflow@@UEAA@XZ
  ??0FingerprintDef@tensorflow@@QEAA@AEBV01@@Z
  ??0FingerprintDef@tensorflow@@IEAA@PEAVArena@protobuf@google@@_N@Z
  ?SavedModelWriteCount@metrics@tensorflow@@YAAEAVCounterCell@monitoring@tsl@@V?$basic_string_view@DU?$char_traits@D@std@@@std@@@Z
  ?SavedModelReadCount@metrics@tensorflow@@YAAEAVCounterCell@monitoring@tsl@@V?$basic_string_view@DU?$char_traits@D@std@@@std@@@Z
  ?SavedModelWriteApi@metrics@tensorflow@@YAAEAVCounterCell@monitoring@tsl@@V?$basic_string_view@DU?$char_traits@D@std@@@std@@@Z
  ?SavedModelReadApi@metrics@tensorflow@@YAAEAVCounterCell@monitoring@tsl@@V?$basic_string_view@DU?$char_traits@D@std@@@std@@@Z
  ?SavedModelWriteFingerprint@metrics@tensorflow@@YAAEAV?$GaugeCell@V?$basic_string@DU?$char_traits@D@std@@V?$allocator@D@2@@std@@@monitoring@tsl@@XZ
  ?SavedModelWritePath@metrics@tensorflow@@YAAEAV?$GaugeCell@V?$basic_string@DU?$char_traits@D@std@@V?$allocator@D@2@@std@@@monitoring@tsl@@XZ
  ?SavedModelWritePathAndSingleprint@metrics@tensorflow@@YAAEAV?$GaugeCell@V?$basic_string@DU?$char_traits@D@std@@V?$allocator@D@2@@std@@@monitoring@tsl@@XZ
  ?SavedModelReadFingerprint@metrics@tensorflow@@YAAEAV?$GaugeCell@V?$basic_string@DU?$char_traits@D@std@@V?$allocator@D@2@@std@@@monitoring@tsl@@XZ
  ?SavedModelReadPath@metrics@tensorflow@@YAAEAV?$GaugeCell@V?$basic_string@DU?$char_traits@D@std@@V?$allocator@D@2@@std@@@monitoring@tsl@@XZ
  ?SavedModelReadPathAndSingleprint@metrics@tensorflow@@YAAEAV?$GaugeCell@V?$basic_string@DU?$char_traits@D@std@@V?$allocator@D@2@@std@@@monitoring@tsl@@XZ
  ?MakeFingerprintJson@metrics@tensorflow@@YA?AV?$basic_string@DU?$char_traits@D@std@@V?$allocator@D@2@@std@@VFingerprintDef@2@@Z
  ?MakeSavedModelPathAndSingleprint@metrics@tensorflow@@YA?AV?$StatusOr@V?$basic_string@DU?$char_traits@D@std@@V?$allocator@D@2@@std@@@lts_20230802@absl@@V?$basic_string@DU?$char_traits@D@std@@V?$allocator@D@2@@std@@0@Z
  ?ParseSavedModelPathAndSingleprint@metrics@tensorflow@@YA?AV?$StatusOr@U?$pair@V?$basic_string@DU?$char_traits@D@std@@V?$allocator@D@2@@std@@V12@@std@@@lts_20230802@absl@@V?$basic_string@DU?$char_traits@D@std@@V?$allocator@D@2@@std@@@Z
  ?SavedModelFoundFingerprintOnLoad@metrics@tensorflow@@YAAEAV?$GaugeCell@V?$basic_string@DU?$char_traits@D@std@@V?$allocator@D@2@@std@@@monitoring@tsl@@XZ
  ?CheckpointReadDuration@metrics@tensorflow@@YAAEAVSamplerCell@monitoring@tsl@@V?$basic_string_view@DU?$char_traits@D@std@@@std@@@Z
  ?CheckpointWriteDuration@metrics@tensorflow@@YAAEAVSamplerCell@monitoring@tsl@@V?$basic_string_view@DU?$char_traits@D@std@@@std@@@Z
  ?AsyncCheckpointWriteDuration@metrics@tensorflow@@YAAEAVSamplerCell@monitoring@tsl@@V?$basic_string_view@DU?$char_traits@D@std@@@std@@@Z
  ?TrainingTimeSaved@metrics@tensorflow@@YAAEAVCounterCell@monitoring@tsl@@V?$basic_string_view@DU?$char_traits@D@std@@@std@@@Z
  ?CheckpointSize@metrics@tensorflow@@YAAEAVCounterCell@monitoring@tsl@@V?$basic_string_view@DU?$char_traits@D@std@@@std@@_J@Z
  ??_7HistogramProto@tensorflow@@6B@
  ??_7FingerprintDef@tensorflow@@6B@
  ?StrCat@lts_20230802@absl@@YA?AV?$basic_string@DU?$char_traits@D@std@@V?$allocator@D@2@@std@@AEBVAlphaNum@12@00@Z
  ?code@Status@lts_20230802@absl@@QEBA?AW4StatusCode@23@XZ
  ?raw_code@Status@lts_20230802@absl@@QEBAHXZ
  ?raw_code@Status@lts_20230802@absl@@QEBAHXZ
  ?ToStringSlow@Status@lts_20230802@absl@@AEBA?AV?$basic_string@DU?$char_traits@D@std@@V?$allocator@D@2@@std@@W4StatusToStringMode@23@@Z
  ?CreateFingerprintDef@fingerprinting@saved_model@tensorflow@@YA?AV?$StatusOr@VFingerprintDef@tensorflow@@@lts_20230802@absl@@V?$basic_string_view@DU?$char_traits@D@std@@@std@@@Z
  ?ReadSavedModelFingerprint@fingerprinting@saved_model@tensorflow@@YA?AV?$StatusOr@VFingerprintDef@tensorflow@@@lts_20230802@absl@@V?$basic_string_view@DU?$char_traits@D@std@@@std@@@Z
  ?Singleprint@fingerprinting@saved_model@tensorflow@@YA?AV?$basic_string@DU?$char_traits@D@std@@V?$allocator@D@2@@std@@_K000@Z
  ?Singleprint@fingerprinting@saved_model@tensorflow@@YA?AV?$basic_string@DU?$char_traits@D@std@@V?$allocator@D@2@@std@@AEBVFingerprintDef@3@@Z
  ?Singleprint@fingerprinting@saved_model@tensorflow@@YA?AV?$StatusOr@V?$basic_string@DU?$char_traits@D@std@@V?$allocator@D@2@@std@@@lts_20230802@absl@@V?$basic_string_view@DU?$char_traits@D@std@@@std@@@Z
  ?NullTerminatedMessage@tsl@@YAPEBDAEBVStatus@lts_20230802@absl@@@Z
  ?NullTerminatedMessage@tsl@@YAPEBDAEBVStatus@lts_20230802@absl@@@Z

;_pywrap_tf_cluster
  ?Set@ArenaStringPtr@internal@protobuf@google@@QEAAXAEBV?$basic_string@DU?$char_traits@D@std@@V?$allocator@D@2@@std@@PEAVArena@34@@Z
  ?ParseFromString@MessageLite@protobuf@google@@QEAA_NAEBV?$basic_string@DU?$char_traits@D@std@@V?$allocator@D@2@@std@@@Z
  ?SerializeAsString@MessageLite@protobuf@google@@QEBA?AV?$basic_string@DU?$char_traits@D@std@@V?$allocator@D@2@@std@@XZ
  ?Get@?$RepeatedPtrField@V?$basic_string@DU?$char_traits@D@std@@V?$allocator@D@2@@std@@@protobuf@google@@QEBAAEBV?$basic_string@DU?$char_traits@D@std@@V?$allocator@D@2@@std@@H@Z
  ??BCord@lts_20230802@absl@@QEBA?AV?$basic_string@DU?$char_traits@D@std@@V?$allocator@D@2@@std@@XZ
  ??1OpDef@tensorflow@@UEAA@XZ
  ??1LogMessageFatal@internal@tsl@@UEAA@XZ
  ??0Status@lts_20230802@absl@@QEAA@W4StatusCode@12@V?$basic_string_view@DU?$char_traits@D@std@@@std@@@Z
  ?raw_code@Status@lts_20230802@absl@@QEBAHXZ
  ?ForEachPayload@Status@lts_20230802@absl@@QEBAXV?$FunctionRef@$$A6AXV?$basic_string_view@DU?$char_traits@D@std@@@std@@AEBVCord@lts_20230802@absl@@@Z@23@@Z
  ?UnrefNonInlined@Status@lts_20230802@absl@@CAX_K@Z
  ?OkStatus@tsl@@YA?AVStatus@lts_20230802@absl@@XZ
  ?StrCat@strings@tsl@@YA?AV?$basic_string@DU?$char_traits@D@std@@V?$allocator@D@2@@std@@AEBVAlphaNum@12@@Z
  ??1Tensor@tensorflow@@QEAA@XZ
  ?Global@OpRegistry@tensorflow@@SAPEAV12@XZ
  ?GetRegisteredOps@OpRegistry@tensorflow@@QEAAXPEAV?$vector@VOpDef@tensorflow@@V?$allocator@VOpDef@tensorflow@@@std@@@std@@@Z
  ?MemoryTypesForNode@tensorflow@@YA?AVStatus@lts_20230802@absl@@PEBVOpRegistryInterface@1@AEBVDeviceType@tsl@@AEBVNodeDef@1@PEAV?$InlinedVector@W4MemoryType@tensorflow@@$03V?$allocator@W4MemoryType@tensorflow@@@std@@@34@3@Z
  ??1StepStats@tensorflow@@UEAA@XZ
  ?CopyFrom@StepStats@tensorflow@@QEAAXAEBV12@@Z
  ??0StepStats@tensorflow@@IEAA@PEAVArena@protobuf@google@@_N@Z
  ??1ThreadPool@thread@tsl@@QEAA@XZ
  ??1RunMetadata@tensorflow@@UEAA@XZ
  ??0RunMetadata@tensorflow@@IEAA@PEAVArena@protobuf@google@@_N@Z
  ?FindKernelDef@tensorflow@@YA?AVStatus@lts_20230802@absl@@AEBVDeviceType@tsl@@AEBVNodeDef@1@PEAPEBVKernelDef@1@PEAV?$basic_string@DU?$char_traits@D@std@@V?$allocator@D@2@@std@@@Z
  ??$CreateMaybeMessage@VDeviceProperties@tensorflow@@$$V@Arena@protobuf@google@@CAPEAVDeviceProperties@tensorflow@@PEAV012@@Z
  ??1DeviceProperties@tensorflow@@UEAA@XZ
  ?CopyFrom@DeviceProperties@tensorflow@@QEAAXAEBV12@@Z
  ??0DeviceProperties@tensorflow@@IEAA@PEAVArena@protobuf@google@@_N@Z
  ??1NamedDevice@tensorflow@@UEAA@XZ
  ??0NamedDevice@tensorflow@@QEAA@AEBV01@@Z
  ?CopyFrom@NamedDevice@tensorflow@@QEAAXAEBV12@@Z
  ?InternalSwap@NamedDevice@tensorflow@@AEAAXPEAV12@@Z
  ??0NamedDevice@tensorflow@@IEAA@PEAVArena@protobuf@google@@_N@Z
  ?AllowSoftPlacement@Cluster@grappler@tensorflow@@QEAAX_N@Z
  ?SetNumWarmupSteps@Cluster@grappler@tensorflow@@QEAAXH@Z
  ?DisableDetailedStats@Cluster@grappler@tensorflow@@QEAAX_N@Z
  ?DetailedStatsEnabled@Cluster@grappler@tensorflow@@QEBA_NXZ
  ??0SingleMachine@grappler@tensorflow@@QEAA@HHH@Z
  ??1OpPerformanceList@tensorflow@@UEAA@XZ
  ?CopyFrom@OpPerformanceList@tensorflow@@QEAAXAEBV12@@Z
  ?InternalSwap@OpPerformanceList@tensorflow@@AEAAXPEAV12@@Z
  ??0OpPerformanceList@tensorflow@@IEAA@PEAVArena@protobuf@google@@_N@Z
  ??0OpLevelCostEstimator@grappler@tensorflow@@QEAA@XZ
  ?PredictCosts@OpLevelCostEstimator@grappler@tensorflow@@UEBA?AUCosts@23@AEBUOpContext@23@@Z
  ?GetDeviceInfo@OpLevelCostEstimator@grappler@tensorflow@@UEBA?AUDeviceInfo@23@AEBVDeviceProperties@3@@Z
  ??0VirtualCluster@grappler@tensorflow@@QEAA@AEBV?$unordered_map@V?$basic_string@DU?$char_traits@D@std@@V?$allocator@D@2@@std@@VDeviceProperties@tensorflow@@U?$hash@V?$basic_string@DU?$char_traits@D@std@@V?$allocator@D@2@@std@@@2@U?$equal_to@V?$basic_string@DU?$char_traits@D@std@@V?$allocator@D@2@@std@@@2@V?$allocator@U?$pair@$$CBV?$basic_string@DU?$char_traits@D@std@@V?$allocator@D@2@@std@@VDeviceProperties@tensorflow@@@std@@@2@@std@@@Z
  ?InferStatically@GraphMemory@grappler@tensorflow@@QEAA?AVStatus@lts_20230802@absl@@AEBV?$unordered_map@V?$basic_string@DU?$char_traits@D@std@@V?$allocator@D@2@@std@@VDeviceProperties@tensorflow@@U?$hash@V?$basic_string@DU?$char_traits@D@std@@V?$allocator@D@2@@std@@@2@U?$equal_to@V?$basic_string@DU?$char_traits@D@std@@V?$allocator@D@2@@std@@@2@V?$allocator@U?$pair@$$CBV?$basic_string@DU?$char_traits@D@std@@V?$allocator@D@2@@std@@VDeviceProperties@tensorflow@@@std@@@2@@std@@@Z
  ?InferDynamically@GraphMemory@grappler@tensorflow@@QEAA?AVStatus@lts_20230802@absl@@PEAVCluster@23@@Z
  ??0MeasuringCostEstimator@grappler@tensorflow@@QEAA@PEAVCluster@12@HH@Z
  ?Initialize@MeasuringCostEstimator@grappler@tensorflow@@UEAA?AVStatus@lts_20230802@absl@@AEBUGrapplerItem@23@@Z
  ?PredictCosts@MeasuringCostEstimator@grappler@tensorflow@@UEBA?AVStatus@lts_20230802@absl@@AEBVGraphDef@3@PEAVRunMetadata@3@PEAUCosts@23@@Z
  ?CostGraphToOpPerformanceData@grappler@tensorflow@@YA?AVOpPerformanceList@2@AEBVCostGraphDef@2@AEBVGraphDef@2@@Z
  ?GetNumAvailableGPUs@grappler@tensorflow@@YAHAEBU?$pair@HH@std@@@Z
  ?GetNumAvailableLogicalCPUCores@grappler@tensorflow@@YAHXZ
  ?ParseTensorName@tensorflow@@YA?AUTensorId@1@V?$basic_string_view@DU?$char_traits@D@std@@@std@@@Z
  ?Lookup@PyExceptionRegistry@tensorflow@@SAPEAU_object@@W4TSL_Code@@@Z
  ?kEmptyGroup@container_internal@lts_20230802@absl@@3QBW4ctrl_t@123@B
  ?_StepStats_default_instance_@tensorflow@@3UStepStatsDefaultTypeInternal@1@A
  ??_7StepStats@tensorflow@@6B@
  ?_CostGraphDef_default_instance_@tensorflow@@3UCostGraphDefDefaultTypeInternal@1@A
  ??_7RunMetadata@tensorflow@@6B@
  ?_DeviceProperties_default_instance_@tensorflow@@3UDevicePropertiesDefaultTypeInternal@1@A
  ??_7DeviceProperties@tensorflow@@6B@
  ??_7NamedDevice@tensorflow@@6B@
  ??_7OpPerformanceList@tensorflow@@6B@

;_test_metrics_util
  ?TestCounter@metrics@tensorflow@@YAPEBVCounterCell@monitoring@tsl@@AEBV?$basic_string@DU?$char_traits@D@std@@V?$allocator@D@2@@std@@0@Z

;_pywrap_py_func
  ?InitializePyTrampoline@tensorflow@@YAXPEAU_object@@@Z

;_pywrap_profiler
  ?CityHash64@hash_internal@lts_20230802@absl@@YA_KPEBD_K@Z
  ?CombineLargeContiguousImpl64@MixingHashState@hash_internal@lts_20230802@absl@@CA_K_KPEBE0@Z
  ??BCord@lts_20230802@absl@@QEBA?AV?$basic_string@DU?$char_traits@D@std@@V?$allocator@D@2@@std@@XZ
  ??$find_first_non_full@X@container_internal@lts_20230802@absl@@YA?AUFindInfo@012@AEBVCommonFields@012@_K@Z
  ?DropDeletesWithoutResize@container_internal@lts_20230802@absl@@YAXAEAVCommonFields@123@AEBUPolicyFunctions@123@PEAX@Z
  ??0Status@lts_20230802@absl@@QEAA@W4StatusCode@12@V?$basic_string_view@DU?$char_traits@D@std@@@std@@@Z
  ?raw_code@Status@lts_20230802@absl@@QEBAHXZ
  ?ForEachPayload@Status@lts_20230802@absl@@QEBAXV?$FunctionRef@$$A6AXV?$basic_string_view@DU?$char_traits@D@std@@@std@@AEBVCord@lts_20230802@absl@@@Z@23@@Z
  ?UnrefNonInlined@Status@lts_20230802@absl@@CAX_K@Z
  ??0LogMessage@internal@tsl@@QEAA@PEBDHH@Z
  ??1LogMessage@internal@tsl@@UEAA@XZ
  ?ParseFromString@MessageLite@protobuf@google@@QEAA_NAEBV?$basic_string@DU?$char_traits@D@std@@V?$allocator@D@2@@std@@@Z
  ?size@?$RepeatedPtrField@V?$basic_string@DU?$char_traits@D@std@@V?$allocator@D@2@@std@@@protobuf@google@@QEBAHXZ
  ?Get@?$RepeatedPtrField@V?$basic_string@DU?$char_traits@D@std@@V?$allocator@D@2@@std@@@protobuf@google@@QEBAAEBV?$basic_string@DU?$char_traits@D@std@@V?$allocator@D@2@@std@@H@Z
  ?Mutable@?$RepeatedPtrField@V?$basic_string@DU?$char_traits@D@std@@V?$allocator@D@2@@std@@@protobuf@google@@QEAAPEAV?$basic_string@DU?$char_traits@D@std@@V?$allocator@D@2@@std@@H@Z
  ?HandleInvalidStatusCtorArg@Helper@internal_statusor@lts_20230802@absl@@SAXPEAVStatus@34@@Z
  ?ThrowBadStatusOrAccess@internal_statusor@lts_20230802@absl@@YAXVStatus@23@@Z
  ??1XSpace@profiler@tensorflow@@UEAA@XZ
  ??0XSpace@profiler@tensorflow@@IEAA@PEAVArena@protobuf@google@@_N@Z
  ?Create@SessionSnapshot@profiler@tensorflow@@SA?AV?$StatusOr@VSessionSnapshot@profiler@tensorflow@@@lts_20230802@absl@@V?$vector@V?$basic_string@DU?$char_traits@D@std@@V?$allocator@D@2@@std@@V?$allocator@V?$basic_string@DU?$char_traits@D@std@@V?$allocator@D@2@@std@@@2@@std@@V?$optional@V?$vector@V?$unique_ptr@VXSpace@profiler@tensorflow@@U?$default_delete@VXSpace@profiler@tensorflow@@@std@@@std@@V?$allocator@V?$unique_ptr@VXSpace@profiler@tensorflow@@U?$default_delete@VXSpace@profiler@tensorflow@@@std@@@std@@@2@@std@@@8@@Z
  ?ConvertMultiXSpacesToToolData@profiler@tensorflow@@YA?AV?$StatusOr@V?$basic_string@DU?$char_traits@D@std@@V?$allocator@D@2@@std@@@lts_20230802@absl@@AEBVSessionSnapshot@12@V?$basic_string_view@DU?$char_traits@D@std@@@std@@AEBV?$flat_hash_map@V?$basic_string@DU?$char_traits@D@std@@V?$allocator@D@2@@std@@V?$variant@HV?$basic_string@DU?$char_traits@D@std@@V?$allocator@D@2@@std@@@2@UStringHash@container_internal@lts_20230802@absl@@UStringEq@567@V?$allocator@U?$pair@$$CBV?$basic_string@DU?$char_traits@D@std@@V?$allocator@D@2@@std@@V?$variant@HV?$basic_string@DU?$char_traits@D@std@@V?$allocator@D@2@@std@@@2@@std@@@2@@45@@Z
  ??1ProfilerServer@profiler@tsl@@QEAA@XZ
  ?StartProfilerServer@ProfilerServer@profiler@tsl@@QEAAXH@Z
  ?Lookup@PyExceptionRegistry@tensorflow@@SAPEAU_object@@W4TSL_Code@@@Z
  ??1ProfilerSession@tsl@@QEAA@XZ
  ?Trace@pywrap@profiler@tensorflow@@YA?AVStatus@lts_20230802@absl@@PEBD00_NHHAEBV?$flat_hash_map@V?$basic_string@DU?$char_traits@D@std@@V?$allocator@D@2@@std@@V?$variant@HV?$basic_string@DU?$char_traits@D@std@@V?$allocator@D@2@@std@@@2@UStringHash@container_internal@lts_20230802@absl@@UStringEq@567@V?$allocator@U?$pair@$$CBV?$basic_string@DU?$char_traits@D@std@@V?$allocator@D@2@@std@@V?$variant@HV?$basic_string@DU?$char_traits@D@std@@V?$allocator@D@2@@std@@@2@@std@@@2@@56@@Z
  ?Monitor@pywrap@profiler@tensorflow@@YA?AVStatus@lts_20230802@absl@@PEBDHH_NPEAV?$basic_string@DU?$char_traits@D@std@@V?$allocator@D@2@@std@@@Z
  ?Start@ProfilerSessionWrapper@pywrap@profiler@tensorflow@@QEAA?AVStatus@lts_20230802@absl@@PEBDAEBV?$flat_hash_map@V?$basic_string@DU?$char_traits@D@std@@V?$allocator@D@2@@std@@V?$variant@HV?$basic_string@DU?$char_traits@D@std@@V?$allocator@D@2@@std@@@2@UStringHash@container_internal@lts_20230802@absl@@UStringEq@567@V?$allocator@U?$pair@$$CBV?$basic_string@DU?$char_traits@D@std@@V?$allocator@D@2@@std@@V?$variant@HV?$basic_string@DU?$char_traits@D@std@@V?$allocator@D@2@@std@@@2@@std@@@2@@67@@Z
  ?Stop@ProfilerSessionWrapper@pywrap@profiler@tensorflow@@QEAA?AVStatus@lts_20230802@absl@@PEAV?$basic_string@DU?$char_traits@D@std@@V?$allocator@D@2@@std@@@Z
  ?ExportToTensorBoard@ProfilerSessionWrapper@pywrap@profiler@tensorflow@@QEAA?AVStatus@lts_20230802@absl@@XZ
  ?kSeed@MixingHashState@hash_internal@lts_20230802@absl@@0QEBXEB
  ?kEmptyGroup@container_internal@lts_20230802@absl@@3QBW4ctrl_t@123@B
  ??_7XSpace@profiler@tensorflow@@6B@

;_pywrap_kernel_registry
  ?TryFindKernelClass@swig@tensorflow@@YA?AV?$basic_string@DU?$char_traits@D@std@@V?$allocator@D@2@@std@@AEBV34@@Z

;_pywrap_tfe
  ?ThrowStdOutOfRange@base_internal@lts_20230802@absl@@YAXPEBD@Z
  ??$Dispatch@H@FormatArgImpl@str_format_internal@lts_20230802@absl@@CA_NTData@0123@VFormatConversionSpecImpl@123@PEAX@Z
  ??$Dispatch@PEBD@FormatArgImpl@str_format_internal@lts_20230802@absl@@CA_NTData@0123@VFormatConversionSpecImpl@123@PEAX@Z
  ??$Dispatch@V?$basic_string@DU?$char_traits@D@std@@V?$allocator@D@2@@std@@@FormatArgImpl@str_format_internal@lts_20230802@absl@@CA_NTData@0123@VFormatConversionSpecImpl@123@PEAX@Z
  ??$Dispatch@V?$basic_string_view@DU?$char_traits@D@std@@@std@@@FormatArgImpl@str_format_internal@lts_20230802@absl@@CA_NTData@0123@VFormatConversionSpecImpl@123@PEAX@Z
  ?FormatPack@str_format_internal@lts_20230802@absl@@YA?AV?$basic_string@DU?$char_traits@D@std@@V?$allocator@D@2@@std@@VUntypedFormatSpecImpl@123@V?$Span@$$CBVFormatArgImpl@str_format_internal@lts_20230802@absl@@@23@@Z
  ?FastIntToBuffer@numbers_internal@lts_20230802@absl@@YAPEADHPEAD@Z
  ?StrCat@lts_20230802@absl@@YA?AV?$basic_string@DU?$char_traits@D@std@@V?$allocator@D@2@@std@@AEBVAlphaNum@12@0@Z
  ?StrAppend@lts_20230802@absl@@YAXPEAV?$basic_string@DU?$char_traits@D@std@@V?$allocator@D@2@@std@@AEBVAlphaNum@12@11@Z
  ??BCord@lts_20230802@absl@@QEBA?AV?$basic_string@DU?$char_traits@D@std@@V?$allocator@D@2@@std@@XZ
  ??0Status@lts_20230802@absl@@QEAA@W4StatusCode@12@V?$basic_string_view@DU?$char_traits@D@std@@@std@@@Z
  ?raw_code@Status@lts_20230802@absl@@QEBAHXZ
  ?ForEachPayload@Status@lts_20230802@absl@@QEBAXV?$FunctionRef@$$A6AXV?$basic_string_view@DU?$char_traits@D@std@@@std@@AEBVCord@lts_20230802@absl@@@Z@23@@Z
  ?UnrefNonInlined@Status@lts_20230802@absl@@CAX_K@Z
  ?ImportNumpy@tsl@@YAXXZ
  ?Find@ByChar@lts_20230802@absl@@QEBA?AV?$basic_string_view@DU?$char_traits@D@std@@@std@@V45@_K@Z
  ??0LogMessage@internal@tsl@@QEAA@PEBDHH@Z
  ??1LogMessage@internal@tsl@@UEAA@XZ
  ?VmoduleActivated@LogMessage@internal@tsl@@SA_NPEBDH@Z
  ??0LogMessageFatal@internal@tsl@@QEAA@PEBDH@Z
  ??1LogMessageFatal@internal@tsl@@UEAA@XZ
  ?Set@ArenaStringPtr@internal@protobuf@google@@QEAAXAEBV?$basic_string@DU?$char_traits@D@std@@V?$allocator@D@2@@std@@PEAVArena@34@@Z
  ?FastInt64ToBufferLeft@strings@tsl@@YA_K_JPEAD@Z
  ?StrCat@strings@tsl@@YA?AV?$basic_string@DU?$char_traits@D@std@@V?$allocator@D@2@@std@@AEBVAlphaNum@12@@Z
  ?StrCat@strings@tsl@@YA?AV?$basic_string@DU?$char_traits@D@std@@V?$allocator@D@2@@std@@AEBVAlphaNum@12@0@Z
  ?StrCat@strings@tsl@@YA?AV?$basic_string@DU?$char_traits@D@std@@V?$allocator@D@2@@std@@AEBVAlphaNum@12@000@Z
  ?CatPieces@internal@strings@tsl@@YA?AV?$basic_string@DU?$char_traits@D@std@@V?$allocator@D@2@@std@@V?$initializer_list@V?$basic_string_view@DU?$char_traits@D@std@@@std@@@5@@Z
  ?HandleInvalidStatusCtorArg@Helper@internal_statusor@lts_20230802@absl@@SAXPEAVStatus@34@@Z
  ?Crash@Helper@internal_statusor@lts_20230802@absl@@SAXAEBVStatus@34@@Z
  ?DestructorOutOfLine@TensorShapeRep@tensorflow@@AEAAXXZ
  ?SlowCopyFrom@TensorShapeRep@tensorflow@@AEAAXAEBV12@@Z
  ??0?$TensorShapeBase@VTensorShape@tensorflow@@@tensorflow@@QEAA@V?$Span@$$CB_J@lts_20230802@absl@@@Z
  ??0?$TensorShapeBase@VTensorShape@tensorflow@@@tensorflow@@QEAA@XZ
  ?CityHash64@hash_internal@lts_20230802@absl@@YA_KPEBD_K@Z
  ?CombineLargeContiguousImpl64@MixingHashState@hash_internal@lts_20230802@absl@@CA_K_KPEBE0@Z
  ??$find_first_non_full@X@container_internal@lts_20230802@absl@@YA?AUFindInfo@012@AEBVCommonFields@012@_K@Z
  ?DropDeletesWithoutResize@container_internal@lts_20230802@absl@@YAXAEAVCommonFields@123@AEBUPolicyFunctions@123@PEAX@Z
  ??0CancellationManager@tsl@@QEAA@XZ
  ??1CancellationManager@tsl@@QEAA@XZ
  ?StartCancel@CancellationManager@tsl@@QEAAXXZ
  ??1DeviceAttributes@tensorflow@@UEAA@XZ
  ??0DeviceAttributes@tensorflow@@QEAA@AEBV01@@Z
  ?ParseFullOrLocalName@DeviceNameUtils@tsl@@SA_NV?$basic_string_view@DU?$char_traits@D@std@@@std@@PEAUParsedName@12@@Z
  ?AreCompatibleDevNames@DeviceNameUtils@tsl@@SA_NAEBUParsedName@12@0@Z
  ??1ConfigProto@tensorflow@@UEAA@XZ
  ??0ConfigProto@tensorflow@@QEAA@AEBV01@@Z
  ?CopyFrom@ConfigProto@tensorflow@@QEAAXAEBV12@@Z
  ?InternalSwap@ConfigProto@tensorflow@@AEAAXPEAV12@@Z
  ??0ConfigProto@tensorflow@@IEAA@PEAVArena@protobuf@google@@_N@Z
  ?name@Node@tensorflow@@QEBAAEBV?$basic_string@DU?$char_traits@D@std@@V?$allocator@D@2@@std@@XZ
  ?ListAllPhysicalDevices@DeviceFactory@tensorflow@@SA?AVStatus@lts_20230802@absl@@PEAV?$vector@V?$basic_string@DU?$char_traits@D@std@@V?$allocator@D@2@@std@@V?$allocator@V?$basic_string@DU?$char_traits@D@std@@V?$allocator@D@2@@std@@@2@@std@@@Z
  ?ListPluggablePhysicalDevices@DeviceFactory@tensorflow@@SA?AVStatus@lts_20230802@absl@@PEAV?$vector@V?$basic_string@DU?$char_traits@D@std@@V?$allocator@D@2@@std@@V?$allocator@V?$basic_string@DU?$char_traits@D@std@@V?$allocator@D@2@@std@@@2@@std@@@Z
  ?GetAnyDeviceDetails@DeviceFactory@tensorflow@@SA?AVStatus@lts_20230802@absl@@HPEAV?$unordered_map@V?$basic_string@DU?$char_traits@D@std@@V?$allocator@D@2@@std@@V12@U?$hash@V?$basic_string@DU?$char_traits@D@std@@V?$allocator@D@2@@std@@@2@U?$equal_to@V?$basic_string@DU?$char_traits@D@std@@V?$allocator@D@2@@std@@@2@V?$allocator@U?$pair@$$CBV?$basic_string@DU?$char_traits@D@std@@V?$allocator@D@2@@std@@V12@@std@@@2@@std@@@Z
  ??1EagerExecutor@tensorflow@@QEAA@XZ
  ?Unregister@CollectionRegistry@monitoring@tsl@@AEAAXPEBVAbstractMetricDef@23@@Z
  ?make_safe@tensorflow@@YA?AV?$unique_ptr@UTSL_Status@@UTFStatusDeleter@detail@tensorflow@@@std@@PEAUTSL_Status@@@Z
  ?make_safe@tensorflow@@YA?AV?$unique_ptr@UTF_Buffer@@UTFBufferDeleter@detail@tensorflow@@@std@@PEAUTF_Buffer@@@Z
  ?Set_TF_Status_from_Status@tsl@@YAXPEAUTSL_Status@@AEBVStatus@lts_20230802@absl@@@Z
  ?GetXlaDeviceFlags@tensorflow@@YAPEAUXlaDeviceFlags@1@XZ
  ?GetMlirCommonFlags@tensorflow@@YAPEAUMlirCommonFlags@1@XZ
  ?ResetJitCompilerFlags@tensorflow@@YAXXZ
  ?add_ret_check_failure@MakeErrorStream@status_macros@xla@@QEAAAEAVMakeErrorStreamWithOutput@123@PEBD@Z
  ??0Impl@MakeErrorStream@status_macros@xla@@QEAA@PEBDHW4Code@error@tensorflow@@PEAV123@_N@Z
  ??1Impl@MakeErrorStream@status_macros@xla@@QEAA@XZ
  ?GetStatus@Impl@MakeErrorStream@status_macros@xla@@QEAA?AVStatus@lts_20230802@absl@@XZ
  ?CheckNotDone@MakeErrorStream@status_macros@xla@@AEBAXXZ
  ?SetVisited@?$DfsHloVisitorBase@PEAVHloInstruction@xla@@@xla@@QEAAXAEBVHloInstruction@2@@Z
  ?SetVisited@?$DfsHloVisitorBase@PEBVHloInstruction@xla@@@xla@@QEAAXAEBVHloInstruction@2@@Z
  ?ToString@HloInstruction@xla@@QEBA?AV?$basic_string@DU?$char_traits@D@std@@V?$allocator@D@2@@std@@XZ
  ??$Accept@PEBVHloInstruction@xla@@@HloInstruction@xla@@QEAA?AVStatus@lts_20230802@absl@@PEAV?$DfsHloVisitorBase@PEBVHloInstruction@xla@@@1@_N11@Z
  ??$Visit@PEBVHloInstruction@xla@@@HloInstruction@xla@@QEAA?AVStatus@lts_20230802@absl@@PEAV?$DfsHloVisitorBase@PEBVHloInstruction@xla@@@1@@Z
  ??$Accept@PEAVHloInstruction@xla@@@HloInstruction@xla@@QEAA?AVStatus@lts_20230802@absl@@PEAV?$DfsHloVisitorBase@PEAVHloInstruction@xla@@@1@_N11@Z
  ??$Visit@PEAVHloInstruction@xla@@@HloInstruction@xla@@QEAA?AVStatus@lts_20230802@absl@@PEAV?$DfsHloVisitorBase@PEAVHloInstruction@xla@@@1@@Z
  ?CollectUnreachableRoots@HloComputation@xla@@AEBA?AV?$vector@PEAVHloInstruction@xla@@V?$allocator@PEAVHloInstruction@xla@@@std@@@std@@XZ
  ?GetCompilerIr@tensorflow@@YA?AV?$StatusOr@V?$basic_string@DU?$char_traits@D@std@@V?$allocator@D@2@@std@@@lts_20230802@absl@@W4IrExportStage@1@PEAVProcessFunctionLibraryRuntime@1@V?$basic_string_view@DU?$char_traits@D@std@@@std@@PEAVDevice@1@PEAVEagerContext@1@V?$Span@$$CBUArgShapeAndDType@tensorflow@@@34@V?$Span@QEBVTensorHandle@tensorflow@@@34@W4CompilerArgSource@1@@Z
  ?GetCompilerIr@tensorflow@@YA?AV?$StatusOr@V?$basic_string@DU?$char_traits@D@std@@V?$allocator@D@2@@std@@@lts_20230802@absl@@W4IrExportStage@1@PEAVProcessFunctionLibraryRuntime@1@V?$basic_string_view@DU?$char_traits@D@std@@@std@@2PEAVEagerContext@1@V?$Span@$$CBUArgShapeAndDType@tensorflow@@@34@V?$Span@QEBVTensorHandle@tensorflow@@@34@W4CompilerArgSource@1@@Z
  ??1CoordinatedTask@tensorflow@@UEAA@XZ
  ?CopyFrom@CoordinatedTask@tensorflow@@QEAAXAEBV12@@Z
  ?InternalSwap@CoordinatedTask@tensorflow@@AEAAXPEAV12@@Z
  ??0CoordinatedTask@tensorflow@@IEAA@PEAVArena@protobuf@google@@_N@Z
  ?SetCEagerContext@tensorflow@@YAXPEAVEagerContext@1@@Z
  ?Get@TFE_TensorHandleCache@tensorflow@@SAPEAU12@XZ
  ?Clear@TFE_TensorHandleCache@tensorflow@@QEAAXXZ
  ?TFE_Py_ExecuteCancelable@@YAXPEAUTFE_Context@@PEBD1PEAV?$InlinedVector@PEAUTFE_TensorHandle@@$03V?$allocator@PEAUTFE_TensorHandle@@@std@@@lts_20230802@absl@@PEAU_object@@PEAUTFE_CancellationManager@@PEAV?$InlinedVector@PEAUTFE_TensorHandle@@$01V?$allocator@PEAUTFE_TensorHandle@@@std@@@34@PEAUTSL_Status@@@Z
  ?TFE_Py_RegisterExceptionClass@@YAPEAU_object@@PEAU1@@Z
  ?TFE_Py_RegisterVSpace@@YAPEAU_object@@PEAU1@@Z
  ?TFE_Py_RegisterFallbackExceptionClass@@YAPEAU_object@@PEAU1@@Z
  ?TFE_Py_RegisterGradientFunction@@YAPEAU_object@@PEAU1@@Z
  ?TFE_Py_RegisterJVPFunction@@YAPEAU_object@@PEAU1@@Z
  ?TFE_GetPythonString@@YAPEBDPEAU_object@@@Z
  ?TFE_Py_UID@@YAPEAU_object@@XZ
  ?TFE_DeleteContextCapsule@@YAXPEAU_object@@@Z
  ?EagerTensor_CheckExact@@YA_NPEBU_object@@@Z
  ?EagerTensorFromHandle@@YAPEAU_object@@PEAUTFE_TensorHandle@@_N@Z
  ?EagerTensor_Handle@@YAPEAUTFE_TensorHandle@@PEBU_object@@@Z
  ?TFE_Py_InitEagerTensor@@YAPEAU_object@@PEAU1@@Z
  ?TFE_Py_SetEagerTensorProfiler@@YAPEAU_object@@PEAU1@@Z
  ?TFE_Py_TapeSetNew@@YAPEAU_object@@PEAU1@0@Z
  ?TFE_Py_TapeSetRemove@@YAXPEAU_object@@@Z
  ?TFE_Py_TapeSetAdd@@YAXPEAU_object@@@Z
  ?TFE_Py_TapeSetIsEmpty@@YAPEAU_object@@XZ
  ?TFE_Py_TapeSetShouldRecordBackprop@@YAPEAU_object@@PEAU1@@Z
  ?TFE_Py_TapeSetPossibleGradientTypes@@YAPEAU_object@@PEAU1@@Z
  ?TFE_Py_TapeWatch@@YAXPEAU_object@@0@Z
  ?TFE_Py_TapeSetDeleteTrace@@YAX_J@Z
  ?TFE_Py_TapeSetStopOnThread@@YAXXZ
  ?TFE_Py_TapeSetRestartOnThread@@YAXXZ
  ?TFE_Py_TapeSetIsStopped@@YAPEAU_object@@XZ
  ?TFE_Py_TapeSetRecordOperation@@YAPEAU_object@@PEAU1@0000@Z
  ?TFE_Py_TapeSetRecordOperationBackprop@@YAPEAU_object@@PEAU1@000@Z
  ?TFE_Py_TapeSetRecordOperationForwardprop@@YAPEAU_object@@PEAU1@0000@Z
  ?TFE_Py_TapeVariableAccessed@@YAXPEAU_object@@@Z
  ?TFE_Py_TapeWatchVariable@@YAXPEAU_object@@0@Z
  ?TFE_Py_TapeGradient@@YAPEAU_object@@PEAU1@00000PEAUTSL_Status@@@Z
  ?TFE_Py_FastPathExecute_C@@YAPEAU_object@@PEAU1@@Z
  ?TFE_Py_RecordGradient@@YAPEAU_object@@PEAU1@0000@Z
  ?TFE_Py_TapeWatchedVariables@@YAPEAU_object@@PEAU1@@Z
  ?TFE_Py_ForwardAccumulatorNew@@YAPEAU_object@@_N@Z
  ?TFE_Py_ForwardAccumulatorSetAdd@@YAPEAU_object@@PEAU1@@Z
  ?TFE_Py_ForwardAccumulatorSetRemove@@YAXPEAU_object@@@Z
  ?TFE_Py_ForwardAccumulatorWatch@@YAXPEAU_object@@00@Z
  ?TFE_Py_ForwardAccumulatorJVP@@YAPEAU_object@@PEAU1@0@Z
  ?TFE_Py_ForwardAccumulatorPushState@@YAPEAU_object@@XZ
  ?TFE_Py_ForwardAccumulatorPopState@@YAPEAU_object@@XZ
  ?TFE_Py_PackJVPs@@YAPEAU_object@@PEAU1@@Z
  ?TFE_Py_VariableWatcherNew@@YAPEAU_object@@XZ
  ?TFE_Py_VariableWatcherRemove@@YAXPEAU_object@@@Z
  ?TFE_Py_VariableWatcherVariableAccessed@@YAXPEAU_object@@@Z
  ?TFE_Py_VariableWatcherWatchedVariables@@YAPEAU_object@@PEAU1@@Z
  ?TFE_Py_TensorShapeSlice@@YAPEAU_object@@PEAU1@H@Z
  ?TFE_Py_TensorShapeOnDevice@@YAPEAU_object@@PEAU1@@Z
  ?TFE_Py_EnableInteractivePythonLogging@@YAXXZ
  ?TFE_Py_SetEagerContext@@YAPEAU_object@@PEAU1@@Z
  ?MakeEagerContextThreadLocalData@tensorflow@@YAXPEAU_object@@00@Z
  ?GetEagerContextThreadLocalData@tensorflow@@YAPEAUEagerContextThreadLocalData@1@PEAU_object@@@Z
  ?DestroyEagerContextThreadLocalData@tensorflow@@YAXPEAU_object@@@Z
  ?Lookup@PyExceptionRegistry@tensorflow@@SAPEAU_object@@W4TSL_Code@@@Z
  ?IsTensor@swig@tensorflow@@YA_NPEAU_object@@@Z
  ?IsTensorSpec@swig@tensorflow@@YA_NPEAU_object@@@Z
  ?IsEagerTensorSlow@swig@tensorflow@@YA_NPEAU_object@@@Z
  ?IsTensorProtocol@swig@tensorflow@@YA_NPEAU_object@@@Z
  ?IsCoreTypeValue@swig@tensorflow@@YA_NPEAU_object@@@Z
  ?kSeed@MixingHashState@hash_internal@lts_20230802@absl@@0QEBXEB
  ?kEmptyGroup@container_internal@lts_20230802@absl@@3QBW4ctrl_t@123@B
  ??_7ConfigProto@tensorflow@@6B@
  ??_7CoordinatedTask@tensorflow@@6B@

;_pywrap_py_exception_registry
  ?Init@PyExceptionRegistry@tensorflow@@SAXPEAU_object@@@Z
  ?Lookup@PyExceptionRegistry@tensorflow@@SAPEAU_object@@W4TSL_Code@@@Z

;_pywrap_quantization
  ?ParseFromString@MessageLite@protobuf@google@@QEAA_NAEBV?$basic_string@DU?$char_traits@D@std@@V?$allocator@D@2@@std@@@Z
  ?SerializeAsString@MessageLite@protobuf@google@@QEBA?AV?$basic_string@DU?$char_traits@D@std@@V?$allocator@D@2@@std@@XZ
  ?begin@?$RepeatedPtrField@V?$basic_string@DU?$char_traits@D@std@@V?$allocator@D@2@@std@@@protobuf@google@@QEBA?AV?$RepeatedPtrIterator@$$CBV?$basic_string@DU?$char_traits@D@std@@V?$allocator@D@2@@std@@@internal@23@XZ
  ?end@?$RepeatedPtrField@V?$basic_string@DU?$char_traits@D@std@@V?$allocator@D@2@@std@@@protobuf@google@@QEBA?AV?$RepeatedPtrIterator@$$CBV?$basic_string@DU?$char_traits@D@std@@V?$allocator@D@2@@std@@@internal@23@XZ
  ??1SignatureDef@tensorflow@@UEAA@XZ
  ?CopyFrom@SignatureDef@tensorflow@@QEAAXAEBV12@@Z
  ?InternalSwap@SignatureDef@tensorflow@@AEAAXPEAV12@@Z
  ??0SignatureDef@tensorflow@@IEAA@PEAVArena@protobuf@google@@_N@Z
  ??1ExportedModel@quantization@tensorflow@@UEAA@XZ
  ??1QuantizationOptions@quantization@tensorflow@@UEAA@XZ
  ??0QuantizationOptions@quantization@tensorflow@@IEAA@PEAVArena@protobuf@google@@_N@Z
  ?EnableDebugging@quantization@stablehlo@@YAXAEAVExportedModel@1tensorflow@@AEBVDebuggerOptions@14@AEBVPyFunctionLibrary@14@V?$basic_string_view@DU?$char_traits@D@std@@@std@@AEBV?$unordered_set@V?$basic_string@DU?$char_traits@D@std@@V?$allocator@D@2@@std@@U?$hash@V?$basic_string@DU?$char_traits@D@std@@V?$allocator@D@2@@std@@@2@U?$equal_to@V?$basic_string@DU?$char_traits@D@std@@V?$allocator@D@2@@std@@@2@V?$allocator@V?$basic_string@DU?$char_traits@D@std@@V?$allocator@D@2@@std@@@2@@8@AEBV?$flat_hash_map@V?$basic_string@DU?$char_traits@D@std@@V?$allocator@D@2@@std@@VSignatureDef@tensorflow@@UStringHash@container_internal@lts_20230802@absl@@UStringEq@678@V?$allocator@U?$pair@$$CBV?$basic_string@DU?$char_traits@D@std@@V?$allocator@D@2@@std@@VSignatureDef@tensorflow@@@std@@@2@@lts_20230802@absl@@@Z
  ?CreateTmpDir@io@quantization@stablehlo@@YA?AV?$StatusOr@V?$basic_string@DU?$char_traits@D@std@@V?$allocator@D@2@@std@@@lts_20230802@absl@@XZ
  ?QuantizePtqModelPreCalibration@quantization@tensorflow@@YA?AV?$StatusOr@VExportedModel@quantization@tensorflow@@@lts_20230802@absl@@V?$basic_string_view@DU?$char_traits@D@std@@@std@@AEBV?$vector@V?$basic_string@DU?$char_traits@D@std@@V?$allocator@D@2@@std@@V?$allocator@V?$basic_string@DU?$char_traits@D@std@@V?$allocator@D@2@@std@@@2@@7@AEBV?$unordered_set@V?$basic_string@DU?$char_traits@D@std@@V?$allocator@D@2@@std@@U?$hash@V?$basic_string@DU?$char_traits@D@std@@V?$allocator@D@2@@std@@@2@U?$equal_to@V?$basic_string@DU?$char_traits@D@std@@V?$allocator@D@2@@std@@@2@V?$allocator@V?$basic_string@DU?$char_traits@D@std@@V?$allocator@D@2@@std@@@2@@7@AEBVQuantizationOptions@12@AEBV?$flat_hash_map@V?$basic_string@DU?$char_traits@D@std@@V?$allocator@D@2@@std@@V12@UStringHash@container_internal@lts_20230802@absl@@UStringEq@456@V?$allocator@U?$pair@$$CBV?$basic_string@DU?$char_traits@D@std@@V?$allocator@D@2@@std@@V12@@std@@@2@@45@@Z
  ?QuantizePtqModelPostCalibration@quantization@tensorflow@@YA?AV?$StatusOr@VExportedModel@quantization@tensorflow@@@lts_20230802@absl@@V?$basic_string_view@DU?$char_traits@D@std@@@std@@AEBV?$vector@V?$basic_string@DU?$char_traits@D@std@@V?$allocator@D@2@@std@@V?$allocator@V?$basic_string@DU?$char_traits@D@std@@V?$allocator@D@2@@std@@@2@@7@AEBV?$unordered_set@V?$basic_string@DU?$char_traits@D@std@@V?$allocator@D@2@@std@@U?$hash@V?$basic_string@DU?$char_traits@D@std@@V?$allocator@D@2@@std@@@2@U?$equal_to@V?$basic_string@DU?$char_traits@D@std@@V?$allocator@D@2@@std@@@2@V?$allocator@V?$basic_string@DU?$char_traits@D@std@@V?$allocator@D@2@@std@@@2@@7@AEBVQuantizationOptions@12@AEBV?$flat_hash_map@V?$basic_string@DU?$char_traits@D@std@@V?$allocator@D@2@@std@@V12@UStringHash@container_internal@lts_20230802@absl@@UStringEq@456@V?$allocator@U?$pair@$$CBV?$basic_string@DU?$char_traits@D@std@@V?$allocator@D@2@@std@@V12@@std@@@2@@45@@Z
  ??_7SignatureDef@tensorflow@@6B@
  ?_CalibrationOptions_default_instance_@quantization@tensorflow@@3UCalibrationOptionsDefaultTypeInternal@12@A
  ?_DebuggerOptions_default_instance_@quantization@tensorflow@@3UDebuggerOptionsDefaultTypeInternal@12@A
  ?_QuantizationOptions_default_instance_@quantization@tensorflow@@3UQuantizationOptionsDefaultTypeInternal@12@A
  ??_7QuantizationOptions@quantization@tensorflow@@6B@

;_fast_module_type
  ?CityHash64@hash_internal@lts_20230802@absl@@YA_KPEBD_K@Z
  ?CombineLargeContiguousImpl64@MixingHashState@hash_internal@lts_20230802@absl@@CA_K_KPEBE0@Z
  ??$find_first_non_full@X@container_internal@lts_20230802@absl@@YA?AUFindInfo@012@AEBVCommonFields@012@_K@Z
  ?EraseMetaOnly@container_internal@lts_20230802@absl@@YAXAEAVCommonFields@123@PEAW4ctrl_t@123@_K@Z
  ?DropDeletesWithoutResize@container_internal@lts_20230802@absl@@YAXAEAVCommonFields@123@AEBUPolicyFunctions@123@PEAX@Z
  ??1LogMessageFatal@internal@tsl@@UEAA@XZ
  ?kSeed@MixingHashState@hash_internal@lts_20230802@absl@@0QEBXEB
  ?kEmptyGroup@container_internal@lts_20230802@absl@@3QBW4ctrl_t@123@B

;_py_context_manager
  ?Enter@PyContextManager@tensorflow@@QEAA_NPEAU_object@@@Z
  ??1PyContextManager@tensorflow@@QEAA@XZ

;_pywrap_checkpoint_reader
  ?raw_code@Status@lts_20230802@absl@@QEBAHXZ
  ?UnrefNonInlined@Status@lts_20230802@absl@@CAX_K@Z
  ?NullTerminatedMessage@tsl@@YAPEBDAEBVStatus@lts_20230802@absl@@@Z
  ?DestructorOutOfLine@TensorShapeRep@tensorflow@@AEAAXXZ
  ?dim_size@?$TensorShapeBase@VTensorShape@tensorflow@@@tensorflow@@QEBA_JH@Z
  ??1Tensor@tensorflow@@QEAA@XZ
  ??1BundleReader@tensorflow@@QEAA@XZ
  ??0CheckpointReader@checkpoint@tensorflow@@QEAA@AEBV?$basic_string@DU?$char_traits@D@std@@V?$allocator@D@2@@std@@PEAUTSL_Status@@@Z
  ?HasTensor@CheckpointReader@checkpoint@tensorflow@@QEBA_NAEBV?$basic_string@DU?$char_traits@D@std@@V?$allocator@D@2@@std@@@Z
  ?DebugString@CheckpointReader@checkpoint@tensorflow@@QEBA?BV?$basic_string@DU?$char_traits@D@std@@V?$allocator@D@2@@std@@XZ
  ?GetVariableToShapeMap@CheckpointReader@checkpoint@tensorflow@@QEBAAEBV?$unordered_map@V?$basic_string@DU?$char_traits@D@std@@V?$allocator@D@2@@std@@VTensorShape@tensorflow@@U?$hash@V?$basic_string@DU?$char_traits@D@std@@V?$allocator@D@2@@std@@@2@U?$equal_to@V?$basic_string@DU?$char_traits@D@std@@V?$allocator@D@2@@std@@@2@V?$allocator@U?$pair@$$CBV?$basic_string@DU?$char_traits@D@std@@V?$allocator@D@2@@std@@VTensorShape@tensorflow@@@std@@@2@@std@@XZ
  ?GetVariableToDataTypeMap@CheckpointReader@checkpoint@tensorflow@@QEBAAEBV?$unordered_map@V?$basic_string@DU?$char_traits@D@std@@V?$allocator@D@2@@std@@W4DataType@tensorflow@@U?$hash@V?$basic_string@DU?$char_traits@D@std@@V?$allocator@D@2@@std@@@2@U?$equal_to@V?$basic_string@DU?$char_traits@D@std@@V?$allocator@D@2@@std@@@2@V?$allocator@U?$pair@$$CBV?$basic_string@DU?$char_traits@D@std@@V?$allocator@D@2@@std@@W4DataType@tensorflow@@@std@@@2@@std@@XZ
  ?GetTensor@CheckpointReader@checkpoint@tensorflow@@QEBAXAEBV?$basic_string@DU?$char_traits@D@std@@V?$allocator@D@2@@std@@PEAV?$unique_ptr@VTensor@tensorflow@@U?$default_delete@VTensor@tensorflow@@@std@@@5@PEAUTSL_Status@@@Z
  ?make_safe@tensorflow@@YA?AV?$unique_ptr@UTSL_Status@@UTFStatusDeleter@detail@tensorflow@@@std@@PEAUTSL_Status@@@Z
  ?make_safe@tensorflow@@YA?AV?$unique_ptr@U_object@@UPyDecrefDeleter@detail@tensorflow@@@std@@PEAU_object@@@Z
  ?TensorToNdarray@tensorflow@@YA?AVStatus@lts_20230802@absl@@AEBVTensor@1@PEAPEAU_object@@@Z

;_filecheck_wrapper
  ??0FileCheck@llvm@@QEAA@UFileCheckRequest@1@@Z
  ??1FileCheck@llvm@@QEAA@XZ
  ?readCheckFile@FileCheck@llvm@@QEAA_NAEAVSourceMgr@2@VStringRef@2@PEAU?$pair@II@std@@@Z
  ?checkInput@FileCheck@llvm@@QEAA_NAEAVSourceMgr@2@VStringRef@2@PEAV?$vector@UFileCheckDiag@llvm@@V?$allocator@UFileCheckDiag@llvm@@@std@@@std@@@Z
  ?getMemBuffer@MemoryBuffer@llvm@@SA?AV?$unique_ptr@VMemoryBuffer@llvm@@U?$default_delete@VMemoryBuffer@llvm@@@std@@@std@@VStringRef@2@0_N@Z
  ??0SrcBuffer@SourceMgr@llvm@@QEAA@$$QEAU012@@Z
  ??1SrcBuffer@SourceMgr@llvm@@QEAA@XZ

;_pywrap_cpu_feature_guard
  ?InfoAboutUnusedCPUFeatures@port@tensorflow@@YAXXZ

;_pywrap_nest
  ?FlattenDictItems@tensorflow@@YAPEAU_object@@PEAU2@@Z

;_pywrap_tfprof
  ?NewProfiler@tfprof@tensorflow@@YA_NPEBV?$basic_string@DU?$char_traits@D@std@@V?$allocator@D@2@@std@@0@Z
  ?DeleteProfiler@tfprof@tensorflow@@YAXXZ
  ?AddStep@tfprof@tensorflow@@YAN_JPEBV?$basic_string@DU?$char_traits@D@std@@V?$allocator@D@2@@std@@11@Z
  ?WriteProfile@tfprof@tensorflow@@YAXPEBV?$basic_string@DU?$char_traits@D@std@@V?$allocator@D@2@@std@@@Z
  ?ProfilerFromFile@tfprof@tensorflow@@YAXPEBV?$basic_string@DU?$char_traits@D@std@@V?$allocator@D@2@@std@@@Z
  ?SerializeToString@tfprof@tensorflow@@YA?AV?$basic_string@DU?$char_traits@D@std@@V?$allocator@D@2@@std@@XZ
  ?Profile@tfprof@tensorflow@@YA?AV?$basic_string@DU?$char_traits@D@std@@V?$allocator@D@2@@std@@PEBV34@0@Z
  ?PrintModelAnalysis@tfprof@tensorflow@@YA?AV?$basic_string@DU?$char_traits@D@std@@V?$allocator@D@2@@std@@PEBV34@0000@Z

;_pywrap_determinism
  ?OpDeterminismRequired@tsl@@YA_NXZ
  ?EnableOpDeterminism@tsl@@YAX_N@Z

;_pywrap_utils
  ?TestCPUFeature@port@tsl@@YA_NW4CPUFeature@12@@Z
  ?IsNested@swig@tensorflow@@YA_NPEAU_object@@@Z
  ?IsNestedOrComposite@swig@tensorflow@@YA_NPEAU_object@@@Z
  ?IsCompositeTensor@swig@tensorflow@@YA_NPEAU_object@@@Z
  ?IsTypeSpec@swig@tensorflow@@YA_NPEAU_object@@@Z
  ?IsNamedtuple@swig@tensorflow@@YAPEAU_object@@PEAU3@_N@Z
  ?IsMapping@swig@tensorflow@@YA_NPEAU_object@@@Z
  ?IsMutableMapping@swig@tensorflow@@YA_NPEAU_object@@@Z
  ?IsMappingView@swig@tensorflow@@YA_NPEAU_object@@@Z
  ?IsAttrs@swig@tensorflow@@YA_NPEAU_object@@@Z
  ?IsTensor@swig@tensorflow@@YA_NPEAU_object@@@Z
  ?IsResourceVariable@swig@tensorflow@@YA_NPEAU_object@@@Z
  ?IsVariable@swig@tensorflow@@YA_NPEAU_object@@@Z
  ?SameNamedtuples@swig@tensorflow@@YAPEAU_object@@PEAU3@0@Z
  ?AssertSameStructure@swig@tensorflow@@YAPEAU_object@@PEAU3@0_N1@Z
  ?Flatten@swig@tensorflow@@YAPEAU_object@@PEAU3@_N@Z
  ?IsNestedForData@swig@tensorflow@@YA_NPEAU_object@@@Z
  ?FlattenForData@swig@tensorflow@@YAPEAU_object@@PEAU3@@Z
  ?AssertSameStructureForData@swig@tensorflow@@YAPEAU_object@@PEAU3@0_N@Z
  ?RegisterPyObject@swig@tensorflow@@YAPEAU_object@@PEAU3@0@Z
  ?RegisterType@swig@tensorflow@@YAPEAU_object@@PEAU3@0@Z

;_pywrap_python_op_gen
  ?GetPythonWrappers@tensorflow@@YA?AV?$basic_string@DU?$char_traits@D@std@@V?$allocator@D@2@@std@@PEBD_K@Z

;_pywrap_tfcompile
  ?CityHash64@hash_internal@lts_20230802@absl@@YA_KPEBD_K@Z
  ?CombineLargeContiguousImpl64@MixingHashState@hash_internal@lts_20230802@absl@@CA_K_KPEBE0@Z
  ??$find_first_non_full@X@container_internal@lts_20230802@absl@@YA?AUFindInfo@012@AEBVCommonFields@012@_K@Z
  ?DropDeletesWithoutResize@container_internal@lts_20230802@absl@@YAXAEAVCommonFields@123@AEBUPolicyFunctions@123@PEAX@Z
  ?raw_code@Status@lts_20230802@absl@@QEBAHXZ
  ?UnrefNonInlined@Status@lts_20230802@absl@@CAX_K@Z
  ??0LogMessage@internal@tsl@@QEAA@PEBDHH@Z
  ??1LogMessage@internal@tsl@@UEAA@XZ
  ?VmoduleActivated@LogMessage@internal@tsl@@SA_NPEBDH@Z
  ?NullTerminatedMessage@tsl@@YAPEBDAEBVStatus@lts_20230802@absl@@@Z
  ?add_ret_check_failure@MakeErrorStream@status_macros@xla@@QEAAAEAVMakeErrorStreamWithOutput@123@PEBD@Z
  ??0Impl@MakeErrorStream@status_macros@xla@@QEAA@PEBDHW4Code@error@tensorflow@@PEAV123@_N@Z
  ??1Impl@MakeErrorStream@status_macros@xla@@QEAA@XZ
  ?GetStatus@Impl@MakeErrorStream@status_macros@xla@@QEAA?AVStatus@lts_20230802@absl@@XZ
  ?CheckNotDone@MakeErrorStream@status_macros@xla@@AEBAXXZ
  ?SetVisited@?$DfsHloVisitorBase@PEAVHloInstruction@xla@@@xla@@QEAAXAEBVHloInstruction@2@@Z
  ?SetVisited@?$DfsHloVisitorBase@PEBVHloInstruction@xla@@@xla@@QEAAXAEBVHloInstruction@2@@Z
  ?ToString@HloInstruction@xla@@QEBA?AV?$basic_string@DU?$char_traits@D@std@@V?$allocator@D@2@@std@@XZ
  ??$Accept@PEBVHloInstruction@xla@@@HloInstruction@xla@@QEAA?AVStatus@lts_20230802@absl@@PEAV?$DfsHloVisitorBase@PEBVHloInstruction@xla@@@1@_N11@Z
  ??$Visit@PEBVHloInstruction@xla@@@HloInstruction@xla@@QEAA?AVStatus@lts_20230802@absl@@PEAV?$DfsHloVisitorBase@PEBVHloInstruction@xla@@@1@@Z
  ??$Accept@PEAVHloInstruction@xla@@@HloInstruction@xla@@QEAA?AVStatus@lts_20230802@absl@@PEAV?$DfsHloVisitorBase@PEAVHloInstruction@xla@@@1@_N11@Z
  ??$Visit@PEAVHloInstruction@xla@@@HloInstruction@xla@@QEAA?AVStatus@lts_20230802@absl@@PEAV?$DfsHloVisitorBase@PEAVHloInstruction@xla@@@1@@Z
  ?CollectUnreachableRoots@HloComputation@xla@@AEBA?AV?$vector@PEAVHloInstruction@xla@@V?$allocator@PEAVHloInstruction@xla@@@std@@@std@@XZ
  ?Main@tfcompile@tensorflow@@YA?AVStatus@lts_20230802@absl@@AEBUMainFlags@12@@Z
  ?kSeed@MixingHashState@hash_internal@lts_20230802@absl@@0QEBXEB
  ?kEmptyGroup@container_internal@lts_20230802@absl@@3QBW4ctrl_t@123@B

;_tfr_wrapper
  ?report_fatal_error@llvm@@YAXAEBVTwine@1@_N@Z
  ?find@StringRef@llvm@@QEBA_KV12@_K@Z
  ?getMemBuffer@MemoryBuffer@llvm@@SA?AV?$unique_ptr@VMemoryBuffer@llvm@@U?$default_delete@VMemoryBuffer@llvm@@@std@@@std@@VStringRef@2@0_N@Z
  ??0SrcBuffer@SourceMgr@llvm@@QEAA@$$QEAU012@@Z
  ??1SrcBuffer@SourceMgr@llvm@@QEAA@XZ
  ?allocate_buffer@llvm@@YAPEAX_K0@Z
  ?deallocate_buffer@llvm@@YAXPEAX_K1@Z
  ?registerImplicitTypeID@FallbackTypeIDResolver@detail@mlir@@KA?AVTypeID@3@VStringRef@llvm@@@Z
  ??0MLIRContext@mlir@@QEAA@AEBVDialectRegistry@1@W4Threading@01@@Z
  ??1MLIRContext@mlir@@QEAA@XZ
  ?loadAllAvailableDialects@MLIRContext@mlir@@QEAAXXZ
  ?getOrLoadDialect@MLIRContext@mlir@@QEAAPEAVDialect@2@VStringRef@llvm@@VTypeID@2@V?$function_ref@$$A6A?AV?$unique_ptr@VDialect@mlir@@U?$default_delete@VDialect@mlir@@@std@@@std@@XZ@5@@Z
  ??0DialectRegistry@mlir@@QEAA@XZ
  ?insert@DialectRegistry@mlir@@QEAAXVTypeID@2@VStringRef@llvm@@AEBV?$function@$$A6APEAVDialect@mlir@@PEAVMLIRContext@2@@Z@std@@@Z
  ?getContext@Attribute@mlir@@QEBAPEAVMLIRContext@2@XZ
  ?report@InFlightDiagnostic@mlir@@QEAAXXZ
  ??0SourceMgrDiagnosticHandler@mlir@@QEAA@AEAVSourceMgr@llvm@@PEAVMLIRContext@1@$$QEAV?$unique_function@$$A6A_NVLocation@mlir@@@Z@3@@Z
  ??1SourceMgrDiagnosticHandler@mlir@@QEAA@XZ
  ?getNodePtr@?$SpecificNodeAccess@U?$node_options@VOperation@mlir@@$0A@$0A@X$0A@@ilist_detail@llvm@@@ilist_detail@llvm@@KAPEAV?$ilist_node_impl@U?$node_options@VOperation@mlir@@$0A@$0A@X$0A@@ilist_detail@llvm@@@3@PEAVOperation@mlir@@@Z
  ?getValuePtr@?$SpecificNodeAccess@U?$node_options@VOperation@mlir@@$0A@$0A@X$0A@@ilist_detail@llvm@@@ilist_detail@llvm@@KAPEAVOperation@mlir@@PEAV?$ilist_node_impl@U?$node_options@VOperation@mlir@@$0A@$0A@X$0A@@ilist_detail@llvm@@@3@@Z
  ?deleteNode@?$ilist_traits@VOperation@mlir@@@llvm@@SAXPEAVOperation@mlir@@@Z
  ?removeNodeFromList@?$ilist_traits@VOperation@mlir@@@llvm@@QEAAXPEAVOperation@mlir@@@Z
  ?transferNodesFromList@?$ilist_traits@VOperation@mlir@@@llvm@@QEAAXAEAU12@V?$ilist_iterator@U?$node_options@VOperation@mlir@@$0A@$0A@X$0A@@ilist_detail@llvm@@$0A@$0A@@2@1@Z
  ?lookup@RegisteredOperationName@mlir@@SA?AV?$optional@VRegisteredOperationName@mlir@@@std@@VStringRef@llvm@@PEAVMLIRContext@2@@Z
  ??0OperationState@mlir@@QEAA@VLocation@1@VOperationName@1@@Z
  ??1OperationState@mlir@@QEAA@XZ
  ??1Block@mlir@@QEAA@XZ
  ?erase@Operation@mlir@@QEAAXXZ
  ?remove@Operation@mlir@@QEAAXXZ
  ?emitError@OpState@mlir@@QEAA?AVInFlightDiagnostic@2@AEBVTwine@llvm@@@Z
  ?create@OpBuilder@mlir@@QEAAPEAVOperation@2@AEBUOperationState@2@@Z
  ??0ArithDialect@arith@mlir@@AEAA@PEAVMLIRContext@2@@Z
  ??0FuncDialect@func@mlir@@AEAA@PEAVMLIRContext@2@@Z
  ?build@ModuleOp@mlir@@SAXAEAVOpBuilder@2@AEAUOperationState@2@V?$optional@VStringRef@llvm@@@std@@@Z
  ?verifyInvariants@ModuleOp@mlir@@QEAA?AULogicalResult@2@XZ
  ??0SCFDialect@scf@mlir@@AEAA@PEAVMLIRContext@2@@Z
  ??0ShapeDialect@shape@mlir@@AEAA@PEAVMLIRContext@2@@Z
  ?verify@mlir@@YA?AULogicalResult@1@PEAVOperation@1@_N@Z
  ?parseSourceFile@mlir@@YA?AULogicalResult@1@AEBVSourceMgr@llvm@@PEAVBlock@1@AEBVParserConfig@1@PEAVLocationAttr@1@@Z
  ??0TensorFlowDialect@TF@mlir@@QEAA@PEAVMLIRContext@2@@Z
  ??1TensorFlowDialect@TF@mlir@@UEAA@XZ
  ??0TFRDialect@TFR@mlir@@QEAA@PEAVMLIRContext@2@@Z
  ?id@?$TypeIDResolver@XX@detail@mlir@@0VSelfOwningTypeID@3@A
  ?id@?$TypeIDResolver@VArithDialect@arith@mlir@@X@detail@mlir@@0VSelfOwningTypeID@3@A
  ?id@?$TypeIDResolver@VFuncDialect@func@mlir@@X@detail@mlir@@0VSelfOwningTypeID@3@A
  ?id@?$TypeIDResolver@VModuleOp@mlir@@X@detail@mlir@@0VSelfOwningTypeID@3@A
  ?id@?$TypeIDResolver@VSCFDialect@scf@mlir@@X@detail@mlir@@0VSelfOwningTypeID@3@A
  ?id@?$TypeIDResolver@VShapeDialect@shape@mlir@@X@detail@mlir@@0VSelfOwningTypeID@3@A

;_dtypes
  ??1LogMessageFatal@internal@tsl@@UEAA@XZ
  ?DataType_IsValid@tensorflow@@YA_NH@Z
  ?DataTypeString@tensorflow@@YA?AV?$basic_string@DU?$char_traits@D@std@@V?$allocator@D@2@@std@@W4DataType@1@@Z
  ?DataTypeSize@tensorflow@@YAHW4DataType@1@@Z

;_pywrap_parallel_device
  ?FastIntToBuffer@numbers_internal@lts_20230802@absl@@YAPEADHPEAD@Z
  ?FastIntToBuffer@numbers_internal@lts_20230802@absl@@YAPEADHPEAD@Z
  ?AppendPieces@strings_internal@lts_20230802@absl@@YAXPEAV?$basic_string@DU?$char_traits@D@std@@V?$allocator@D@2@@std@@V?$initializer_list@V?$basic_string_view@DU?$char_traits@D@std@@@std@@@5@@Z
  ?StrCat@lts_20230802@absl@@YA?AV?$basic_string@DU?$char_traits@D@std@@V?$allocator@D@2@@std@@AEBVAlphaNum@12@00@Z
  ?StrCat@lts_20230802@absl@@YA?AV?$basic_string@DU?$char_traits@D@std@@V?$allocator@D@2@@std@@AEBVAlphaNum@12@00@Z
  ?StrCat@lts_20230802@absl@@YA?AV?$basic_string@DU?$char_traits@D@std@@V?$allocator@D@2@@std@@AEBVAlphaNum@12@000@Z
  ??0Status@lts_20230802@absl@@QEAA@W4StatusCode@12@V?$basic_string_view@DU?$char_traits@D@std@@@std@@@Z
  ?UnrefNonInlined@Status@lts_20230802@absl@@CAX_K@Z
  ?UnrefNonInlined@Status@lts_20230802@absl@@CAX_K@Z
  ?OkStatus@tsl@@YA?AVStatus@lts_20230802@absl@@XZ
  ?StrCat@strings@tsl@@YA?AV?$basic_string@DU?$char_traits@D@std@@V?$allocator@D@2@@std@@AEBVAlphaNum@12@@Z
  ?DebugString@TensorShapeRep@tensorflow@@QEBA?AV?$basic_string@DU?$char_traits@D@std@@V?$allocator@D@2@@std@@XZ
  ?DestructorOutOfLine@TensorShapeRep@tensorflow@@AEAAXXZ
  ??0?$TensorShapeBase@VPartialTensorShape@tensorflow@@@tensorflow@@QEAA@XZ
  ?SetDimWithStatus@?$TensorShapeBase@VPartialTensorShape@tensorflow@@@tensorflow@@QEAA?AVStatus@lts_20230802@absl@@H_J@Z
  ?dim_size@?$TensorShapeBase@VPartialTensorShape@tensorflow@@@tensorflow@@QEBA_JH@Z
  ?dim_sizes@?$TensorShapeBase@VPartialTensorShape@tensorflow@@@tensorflow@@QEBA?AV?$InlinedVector@_J$03V?$allocator@_J@std@@@lts_20230802@absl@@XZ
  ??0mutex@tsl@@QEAA@XZ
  ?lock@mutex@tsl@@QEAAXXZ
  ?unlock@mutex@tsl@@QEAAXXZ
  ??0condition_variable@tsl@@QEAA@XZ
  ?wait@condition_variable@tsl@@QEAAXAEAVmutex_lock@2@@Z
  ?notify_one@condition_variable@tsl@@QEAAXXZ
  ??0CancellationManager@tsl@@QEAA@XZ
  ??1CancellationManager@tsl@@QEAA@XZ
  ?StartCancel@CancellationManager@tsl@@QEAAXXZ
  ?Default@Env@tsl@@SAPEAV12@XZ
  ?ParseFullName@DeviceNameUtils@tsl@@SA_NV?$basic_string_view@DU?$char_traits@D@std@@@std@@PEAUParsedName@12@@Z
  ?IsSameAddressSpace@DeviceNameUtils@tsl@@SA_NV?$basic_string_view@DU?$char_traits@D@std@@@std@@0@Z
  ?FastIntToBuffer@numbers_internal@lts_20230802@absl@@YAPEAD_KPEAD@Z
  ?CatPieces@strings_internal@lts_20230802@absl@@YA?AV?$basic_string@DU?$char_traits@D@std@@V?$allocator@D@2@@std@@V?$initializer_list@V?$basic_string_view@DU?$char_traits@D@std@@@std@@@5@@Z
  ?StrCat@lts_20230802@absl@@YA?AV?$basic_string@DU?$char_traits@D@std@@V?$allocator@D@2@@std@@AEBVAlphaNum@12@0@Z
  ?Set_TF_Status_from_Status@tsl@@YAXPEAUTSL_Status@@AEBVStatus@lts_20230802@absl@@@Z

;_pywrap_quantize_training
  ??0Status@lts_20230802@absl@@QEAA@W4StatusCode@12@V?$basic_string_view@DU?$char_traits@D@std@@@std@@@Z
  ?raw_code@Status@lts_20230802@absl@@QEBAHXZ
  ?UnrefNonInlined@Status@lts_20230802@absl@@CAX_K@Z
  ?NullTerminatedMessage@tsl@@YAPEBDAEBVStatus@lts_20230802@absl@@@Z
  ?StrCat@strings@tsl@@YA?AV?$basic_string@DU?$char_traits@D@std@@V?$allocator@D@2@@std@@AEBVAlphaNum@12@@Z
  ?DoQuantizeTrainingOnSerializedGraphDef@tensorflow@@YA?AVStatus@lts_20230802@absl@@AEBV?$basic_string@DU?$char_traits@D@std@@V?$allocator@D@2@@std@@H0PEAV56@@Z

;_pywrap_tf2
  ?set_tf2_execution@tensorflow@@YAX_N@Z
  ?tf2_execution_enabled@tensorflow@@YA_NXZ

;_pywrap_file_io
  ??BCord@lts_20230802@absl@@QEBA?AV?$basic_string@DU?$char_traits@D@std@@V?$allocator@D@2@@std@@XZ
  ??0Status@lts_20230802@absl@@QEAA@W4StatusCode@12@V?$basic_string_view@DU?$char_traits@D@std@@@std@@@Z
  ?raw_code@Status@lts_20230802@absl@@QEBAHXZ
  ?ForEachPayload@Status@lts_20230802@absl@@QEBAXV?$FunctionRef@$$A6AXV?$basic_string_view@DU?$char_traits@D@std@@@std@@AEBVCord@lts_20230802@absl@@@Z@23@@Z
  ?UnrefNonInlined@Status@lts_20230802@absl@@CAX_K@Z
  ?StrCat@strings@tsl@@YA?AV?$basic_string@DU?$char_traits@D@std@@V?$allocator@D@2@@std@@AEBVAlphaNum@12@@Z
  ?IsAlreadyExists@errors@tsl@@YA_NAEBVStatus@lts_20230802@absl@@@Z
  ?IsFailedPrecondition@errors@tsl@@YA_NAEBVStatus@lts_20230802@absl@@@Z
  ?IsOutOfRange@errors@tsl@@YA_NAEBVStatus@lts_20230802@absl@@@Z
  ??0BufferedInputStream@io@tsl@@QEAA@PEAVInputStreamInterface@12@_K_N@Z
  ?Seek@BufferedInputStream@io@tsl@@QEAA?AVStatus@lts_20230802@absl@@_J@Z
  ?ReadLineAsString@BufferedInputStream@io@tsl@@QEAA?AV?$basic_string@DU?$char_traits@D@std@@V?$allocator@D@2@@std@@XZ
  ??0RandomAccessInputStream@io@tsl@@QEAA@PEAVRandomAccessFile@2@_N@Z
  ?Default@Env@tsl@@SAPEAV12@XZ
  ?NewRandomAccessFile@Env@tsl@@QEAA?AVStatus@lts_20230802@absl@@AEBV?$basic_string@DU?$char_traits@D@std@@V?$allocator@D@2@@std@@PEAV?$unique_ptr@VRandomAccessFile@tsl@@U?$default_delete@VRandomAccessFile@tsl@@@std@@@7@@Z
  ?NewWritableFile@Env@tsl@@QEAA?AVStatus@lts_20230802@absl@@AEBV?$basic_string@DU?$char_traits@D@std@@V?$allocator@D@2@@std@@PEAV?$unique_ptr@VWritableFile@tsl@@U?$default_delete@VWritableFile@tsl@@@std@@@7@@Z
  ?NewAppendableFile@Env@tsl@@QEAA?AVStatus@lts_20230802@absl@@AEBV?$basic_string@DU?$char_traits@D@std@@V?$allocator@D@2@@std@@PEAV?$unique_ptr@VWritableFile@tsl@@U?$default_delete@VWritableFile@tsl@@@std@@@7@@Z
  ?FileExists@Env@tsl@@QEAA?AVStatus@lts_20230802@absl@@AEBV?$basic_string@DU?$char_traits@D@std@@V?$allocator@D@2@@std@@@Z
  ?GetChildren@Env@tsl@@QEAA?AVStatus@lts_20230802@absl@@AEBV?$basic_string@DU?$char_traits@D@std@@V?$allocator@D@2@@std@@PEAV?$vector@V?$basic_string@DU?$char_traits@D@std@@V?$allocator@D@2@@std@@V?$allocator@V?$basic_string@DU?$char_traits@D@std@@V?$allocator@D@2@@std@@@2@@7@@Z
  ?DeleteFile@Env@tsl@@QEAA?AVStatus@lts_20230802@absl@@AEBV?$basic_string@DU?$char_traits@D@std@@V?$allocator@D@2@@std@@@Z
  ?DeleteRecursively@Env@tsl@@QEAA?AVStatus@lts_20230802@absl@@AEBV?$basic_string@DU?$char_traits@D@std@@V?$allocator@D@2@@std@@PEA_J1@Z
  ?RecursivelyCreateDir@Env@tsl@@QEAA?AVStatus@lts_20230802@absl@@AEBV?$basic_string@DU?$char_traits@D@std@@V?$allocator@D@2@@std@@@Z
  ?CreateDir@Env@tsl@@QEAA?AVStatus@lts_20230802@absl@@AEBV?$basic_string@DU?$char_traits@D@std@@V?$allocator@D@2@@std@@@Z
  ?Stat@Env@tsl@@QEAA?AVStatus@lts_20230802@absl@@AEBV?$basic_string@DU?$char_traits@D@std@@V?$allocator@D@2@@std@@PEAUFileStatistics@2@@Z
  ?IsDirectory@Env@tsl@@QEAA?AVStatus@lts_20230802@absl@@AEBV?$basic_string@DU?$char_traits@D@std@@V?$allocator@D@2@@std@@@Z
  ?HasAtomicMove@Env@tsl@@QEAA?AVStatus@lts_20230802@absl@@AEBV?$basic_string@DU?$char_traits@D@std@@V?$allocator@D@2@@std@@PEA_N@Z
  ?RenameFile@Env@tsl@@QEAA?AVStatus@lts_20230802@absl@@AEBV?$basic_string@DU?$char_traits@D@std@@V?$allocator@D@2@@std@@0@Z
  ?CopyFile@Env@tsl@@QEAA?AVStatus@lts_20230802@absl@@AEBV?$basic_string@DU?$char_traits@D@std@@V?$allocator@D@2@@std@@0@Z
  ?ReadFileToString@tsl@@YA?AVStatus@lts_20230802@absl@@PEAVEnv@1@AEBV?$basic_string@DU?$char_traits@D@std@@V?$allocator@D@2@@std@@PEAV67@@Z
  ?WriteStringToFile@tsl@@YA?AVStatus@lts_20230802@absl@@PEAVEnv@1@AEBV?$basic_string@DU?$char_traits@D@std@@V?$allocator@D@2@@std@@AEBV?$basic_string_view@DU?$char_traits@D@std@@@7@@Z
  ?Lookup@PyExceptionRegistry@tensorflow@@SAPEAU_object@@W4TSL_Code@@@Z

;_nn_ops
  ??BCord@lts_20230802@absl@@QEBA?AV?$basic_string@DU?$char_traits@D@std@@V?$allocator@D@2@@std@@XZ
  ?raw_code@Status@lts_20230802@absl@@QEBAHXZ
  ?ForEachPayload@Status@lts_20230802@absl@@QEBAXV?$FunctionRef@$$A6AXV?$basic_string_view@DU?$char_traits@D@std@@@std@@AEBVCord@lts_20230802@absl@@@Z@23@@Z
  ?UnrefNonInlined@Status@lts_20230802@absl@@CAX_K@Z
  ?SparseSoftmaxCrossEntropyWithLogits@ops@tensorflow@@YA?AVStatus@lts_20230802@absl@@PEAVAbstractContext@2@QEAVAbstractTensorHandle@2@1PEAPEAV72@2PEBD3@Z
  ?Relu@ops@tensorflow@@YA?AVStatus@lts_20230802@absl@@PEAVAbstractContext@2@QEAVAbstractTensorHandle@2@PEAPEAV72@PEBD3@Z
  ?Lookup@PyExceptionRegistry@tensorflow@@SAPEAU_object@@W4TSL_Code@@@Z

;_pywrap_quantize_model
  ??1SignatureDef@tensorflow@@UEAA@XZ
  ?CopyFrom@SignatureDef@tensorflow@@QEAAXAEBV12@@Z
  ?InternalSwap@SignatureDef@tensorflow@@AEAAXPEAV12@@Z
  ??0SignatureDef@tensorflow@@IEAA@PEAVArena@protobuf@google@@_N@Z
  ??1ExportedModel@quantization@tensorflow@@UEAA@XZ
  ??1QuantizationOptions@quantization@tensorflow@@UEAA@XZ
  ??0QuantizationOptions@quantization@tensorflow@@IEAA@PEAVArena@protobuf@google@@_N@Z
  ?EnableDebugging@quantization@stablehlo@@YAXAEAVExportedModel@1tensorflow@@AEBVDebuggerOptions@14@AEBVPyFunctionLibrary@14@V?$basic_string_view@DU?$char_traits@D@std@@@std@@AEBV?$unordered_set@V?$basic_string@DU?$char_traits@D@std@@V?$allocator@D@2@@std@@U?$hash@V?$basic_string@DU?$char_traits@D@std@@V?$allocator@D@2@@std@@@2@U?$equal_to@V?$basic_string@DU?$char_traits@D@std@@V?$allocator@D@2@@std@@@2@V?$allocator@V?$basic_string@DU?$char_traits@D@std@@V?$allocator@D@2@@std@@@2@@8@AEBV?$flat_hash_map@V?$basic_string@DU?$char_traits@D@std@@V?$allocator@D@2@@std@@VSignatureDef@tensorflow@@UStringHash@container_internal@lts_20230802@absl@@UStringEq@678@V?$allocator@U?$pair@$$CBV?$basic_string@DU?$char_traits@D@std@@V?$allocator@D@2@@std@@VSignatureDef@tensorflow@@@std@@@2@@lts_20230802@absl@@@Z
  ?CreateTmpDir@io@quantization@stablehlo@@YA?AV?$StatusOr@V?$basic_string@DU?$char_traits@D@std@@V?$allocator@D@2@@std@@@lts_20230802@absl@@XZ
  ?QuantizeQatModel@quantization@tensorflow@@YA?AV?$StatusOr@VExportedModel@quantization@tensorflow@@@lts_20230802@absl@@V?$basic_string_view@DU?$char_traits@D@std@@@std@@AEBV?$vector@V?$basic_string@DU?$char_traits@D@std@@V?$allocator@D@2@@std@@V?$allocator@V?$basic_string@DU?$char_traits@D@std@@V?$allocator@D@2@@std@@@2@@7@AEBV?$unordered_set@V?$basic_string@DU?$char_traits@D@std@@V?$allocator@D@2@@std@@U?$hash@V?$basic_string@DU?$char_traits@D@std@@V?$allocator@D@2@@std@@@2@U?$equal_to@V?$basic_string@DU?$char_traits@D@std@@V?$allocator@D@2@@std@@@2@V?$allocator@V?$basic_string@DU?$char_traits@D@std@@V?$allocator@D@2@@std@@@2@@7@AEBVQuantizationOptions@12@AEBV?$flat_hash_map@V?$basic_string@DU?$char_traits@D@std@@V?$allocator@D@2@@std@@V12@UStringHash@container_internal@lts_20230802@absl@@UStringEq@456@V?$allocator@U?$pair@$$CBV?$basic_string@DU?$char_traits@D@std@@V?$allocator@D@2@@std@@V12@@std@@@2@@45@@Z
  ?QuantizePtqDynamicRange@quantization@tensorflow@@YA?AV?$StatusOr@VExportedModel@quantization@tensorflow@@@lts_20230802@absl@@V?$basic_string_view@DU?$char_traits@D@std@@@std@@AEBV?$vector@V?$basic_string@DU?$char_traits@D@std@@V?$allocator@D@2@@std@@V?$allocator@V?$basic_string@DU?$char_traits@D@std@@V?$allocator@D@2@@std@@@2@@7@AEBV?$unordered_set@V?$basic_string@DU?$char_traits@D@std@@V?$allocator@D@2@@std@@U?$hash@V?$basic_string@DU?$char_traits@D@std@@V?$allocator@D@2@@std@@@2@U?$equal_to@V?$basic_string@DU?$char_traits@D@std@@V?$allocator@D@2@@std@@@2@V?$allocator@V?$basic_string@DU?$char_traits@D@std@@V?$allocator@D@2@@std@@@2@@7@AEBVQuantizationOptions@12@AEBV?$flat_hash_map@V?$basic_string@DU?$char_traits@D@std@@V?$allocator@D@2@@std@@V12@UStringHash@container_internal@lts_20230802@absl@@UStringEq@456@V?$allocator@U?$pair@$$CBV?$basic_string@DU?$char_traits@D@std@@V?$allocator@D@2@@std@@V12@@std@@@2@@45@@Z
  ?QuantizeWeightOnly@quantization@tensorflow@@YA?AV?$StatusOr@VExportedModel@quantization@tensorflow@@@lts_20230802@absl@@V?$basic_string_view@DU?$char_traits@D@std@@@std@@AEBVQuantizationOptions@12@AEBV?$flat_hash_map@V?$basic_string@DU?$char_traits@D@std@@V?$allocator@D@2@@std@@V12@UStringHash@container_internal@lts_20230802@absl@@UStringEq@456@V?$allocator@U?$pair@$$CBV?$basic_string@DU?$char_traits@D@std@@V?$allocator@D@2@@std@@V12@@std@@@2@@45@@Z
  ?QuantizePtqModelPreCalibration@quantization@tensorflow@@YA?AV?$StatusOr@VExportedModel@quantization@tensorflow@@@lts_20230802@absl@@V?$basic_string_view@DU?$char_traits@D@std@@@std@@AEBV?$vector@V?$basic_string@DU?$char_traits@D@std@@V?$allocator@D@2@@std@@V?$allocator@V?$basic_string@DU?$char_traits@D@std@@V?$allocator@D@2@@std@@@2@@7@AEBV?$unordered_set@V?$basic_string@DU?$char_traits@D@std@@V?$allocator@D@2@@std@@U?$hash@V?$basic_string@DU?$char_traits@D@std@@V?$allocator@D@2@@std@@@2@U?$equal_to@V?$basic_string@DU?$char_traits@D@std@@V?$allocator@D@2@@std@@@2@V?$allocator@V?$basic_string@DU?$char_traits@D@std@@V?$allocator@D@2@@std@@@2@@7@AEBVQuantizationOptions@12@AEBV?$flat_hash_map@V?$basic_string@DU?$char_traits@D@std@@V?$allocator@D@2@@std@@V12@UStringHash@container_internal@lts_20230802@absl@@UStringEq@456@V?$allocator@U?$pair@$$CBV?$basic_string@DU?$char_traits@D@std@@V?$allocator@D@2@@std@@V12@@std@@@2@@45@@Z
  ?QuantizePtqModelPostCalibration@quantization@tensorflow@@YA?AV?$StatusOr@VExportedModel@quantization@tensorflow@@@lts_20230802@absl@@V?$basic_string_view@DU?$char_traits@D@std@@@std@@AEBV?$vector@V?$basic_string@DU?$char_traits@D@std@@V?$allocator@D@2@@std@@V?$allocator@V?$basic_string@DU?$char_traits@D@std@@V?$allocator@D@2@@std@@@2@@7@AEBV?$unordered_set@V?$basic_string@DU?$char_traits@D@std@@V?$allocator@D@2@@std@@U?$hash@V?$basic_string@DU?$char_traits@D@std@@V?$allocator@D@2@@std@@@2@U?$equal_to@V?$basic_string@DU?$char_traits@D@std@@V?$allocator@D@2@@std@@@2@V?$allocator@V?$basic_string@DU?$char_traits@D@std@@V?$allocator@D@2@@std@@@2@@7@AEBVQuantizationOptions@12@AEBV?$flat_hash_map@V?$basic_string@DU?$char_traits@D@std@@V?$allocator@D@2@@std@@V12@UStringHash@container_internal@lts_20230802@absl@@UStringEq@456@V?$allocator@U?$pair@$$CBV?$basic_string@DU?$char_traits@D@std@@V?$allocator@D@2@@std@@V12@@std@@@2@@45@@Z
  ??_7SignatureDef@tensorflow@@6B@
  ?_CalibrationOptions_default_instance_@quantization@tensorflow@@3UCalibrationOptionsDefaultTypeInternal@12@A
  ?_DebuggerOptions_default_instance_@quantization@tensorflow@@3UDebuggerOptionsDefaultTypeInternal@12@A
  ?_QuantizationOptions_default_instance_@quantization@tensorflow@@3UQuantizationOptionsDefaultTypeInternal@12@A
  ??_7QuantizationOptions@quantization@tensorflow@@6B@

;_tf_stack
  ??0mutex@tsl@@QEAA@XZ
  ?lock@mutex@tsl@@QEAAXXZ
  ?unlock@mutex@tsl@@QEAAXXZ
  ??0FrozenStackTrace@tensorflow@@QEAA@V?$Span@$$CBUStackFrame@tsl@@@lts_20230802@absl@@0@Z
  ?ToFrames@FrozenStackTrace@tensorflow@@UEBA?AV?$Span@$$CBUStackFrame@tsl@@@lts_20230802@absl@@XZ
  ?LastUserFrame@FrozenStackTrace@tensorflow@@UEBA?AUStackFrame@tsl@@XZ
  ?GetUserFrames@FrozenStackTrace@tensorflow@@UEBA?AV?$vector@UStackFrame@tsl@@V?$allocator@UStackFrame@tsl@@@std@@@std@@H@Z
  ?ToString@FrozenStackTrace@tensorflow@@UEBA?AV?$basic_string@DU?$char_traits@D@std@@V?$allocator@D@2@@std@@AEBUTracePrintingOptions@AbstractStackTrace@2@@Z
  ?LoadTracesFromDebugInfoStr@tensorflow@@YA?AV?$StatusOr@V?$flat_hash_map@V?$basic_string@DU?$char_traits@D@std@@V?$allocator@D@2@@std@@V?$shared_ptr@VAbstractStackTrace@tensorflow@@@2@UStringHash@container_internal@lts_20230802@absl@@UStringEq@567@V?$allocator@U?$pair@$$CBV?$basic_string@DU?$char_traits@D@std@@V?$allocator@D@2@@std@@V?$shared_ptr@VAbstractStackTrace@tensorflow@@@2@@std@@@2@@lts_20230802@absl@@@lts_20230802@absl@@V?$basic_string_view@DU?$char_traits@D@std@@@std@@@Z
  ??0GraphDebugInfoBuilder@tensorflow@@QEAA@XZ
  ?AccumulateStackTrace@GraphDebugInfoBuilder@tensorflow@@QEAAXV?$shared_ptr@VAbstractStackTrace@tensorflow@@@std@@V?$basic_string_view@DU?$char_traits@D@std@@@4@AEBUOptions@12@@Z
  ?AppendGraphDebugInfoStr@GraphDebugInfoBuilder@tensorflow@@QEAA?AVStatus@lts_20230802@absl@@V?$basic_string_view@DU?$char_traits@D@std@@@std@@0@Z
  ?ToGraphDebugInfoStr@GraphDebugInfoBuilder@tensorflow@@QEBA?AV?$basic_string@DU?$char_traits@D@std@@V?$allocator@D@2@@std@@XZ
  ?Capture@StackTrace@tensorflow@@SA?AV?$shared_ptr@VStackTrace@tensorflow@@@std@@H@Z

;_pywrap_server_lib
  ??1DataServiceMetadata@data@tensorflow@@UEAA@XZ
  ?CopyFrom@DataServiceMetadata@data@tensorflow@@QEAAXAEBV123@@Z
  ?InternalSwap@DataServiceMetadata@data@tensorflow@@AEAAXPEAV123@@Z
  ??0DataServiceMetadata@data@tensorflow@@IEAA@PEAVArena@protobuf@google@@_N@Z
  ??0Status@lts_20230802@absl@@QEAA@W4StatusCode@12@V?$basic_string_view@DU?$char_traits@D@std@@@std@@@Z
  ?raw_code@Status@lts_20230802@absl@@QEBAHXZ
  ?UnrefNonInlined@Status@lts_20230802@absl@@CAX_K@Z
  ?NullTerminatedMessage@tsl@@YAPEBDAEBVStatus@lts_20230802@absl@@@Z
  ?StrCat@strings@tsl@@YA?AV?$basic_string@DU?$char_traits@D@std@@V?$allocator@D@2@@std@@AEBVAlphaNum@12@@Z
  ?StrCat@strings@tsl@@YA?AV?$basic_string@DU?$char_traits@D@std@@V?$allocator@D@2@@std@@AEBVAlphaNum@12@000@Z
  ??0mutex@tsl@@QEAA@XZ
  ??1DispatcherConfig@experimental@data@tensorflow@@UEAA@XZ
  ??0DispatcherConfig@experimental@data@tensorflow@@IEAA@PEAVArena@protobuf@google@@_N@Z
  ??1WorkerConfig@experimental@data@tensorflow@@UEAA@XZ
  ??0WorkerConfig@experimental@data@tensorflow@@IEAA@PEAVArena@protobuf@google@@_N@Z
  ?Initialize@DataServiceDispatcherClient@data@tensorflow@@UEAA?AVStatus@lts_20230802@absl@@XZ
  ?GetSnapshotSplit@DataServiceDispatcherClient@data@tensorflow@@UEAA?AVStatus@lts_20230802@absl@@AEBV?$basic_string@DU?$char_traits@D@std@@V?$allocator@D@2@@std@@0_J11AEAVTensor@3@AEA_JAEA_N@Z
  ?GetDataServiceMetadata@DataServiceDispatcherClient@data@tensorflow@@QEAA?AVStatus@lts_20230802@absl@@AEBV?$basic_string@DU?$char_traits@D@std@@V?$allocator@D@2@@std@@AEAVDataServiceMetadata@23@@Z
  ?EnsureInitialized@DataServiceDispatcherClient@data@tensorflow@@MEAA?AVStatus@lts_20230802@absl@@XZ
  ?Retry@grpc_util@data@tensorflow@@YA?AVStatus@lts_20230802@absl@@AEBV?$function@$$A6A?AVStatus@lts_20230802@absl@@XZ@std@@AEBV?$basic_string@DU?$char_traits@D@std@@V?$allocator@D@2@@8@_J@Z
  ?Start@GrpcDataServerBase@data@tensorflow@@QEAA?AVStatus@lts_20230802@absl@@XZ
  ?Stop@GrpcDataServerBase@data@tensorflow@@QEAAXXZ
  ?Join@GrpcDataServerBase@data@tensorflow@@QEAAXXZ
  ?BoundPort@GrpcDataServerBase@data@tensorflow@@QEAAHXZ
  ?NumWorkers@DispatchGrpcDataServer@data@tensorflow@@QEAA?AVStatus@lts_20230802@absl@@PEAH@Z
  ?SnapshotStreams@DispatchGrpcDataServer@data@tensorflow@@QEAA?AVStatus@lts_20230802@absl@@AEBV?$basic_string@DU?$char_traits@D@std@@V?$allocator@D@2@@std@@PEAV?$vector@USnapshotStreamInfoWrapper@data@tensorflow@@V?$allocator@USnapshotStreamInfoWrapper@data@tensorflow@@@std@@@8@@Z
  ?NumTasks@WorkerGrpcDataServer@data@tensorflow@@QEAA?AVStatus@lts_20230802@absl@@PEAH@Z
  ?SnapshotTaskProgresses@WorkerGrpcDataServer@data@tensorflow@@QEAA?AVStatus@lts_20230802@absl@@PEAV?$vector@USnapshotTaskProgressWrapper@data@tensorflow@@V?$allocator@USnapshotTaskProgressWrapper@data@tensorflow@@@std@@@std@@@Z
  ?NewDispatchServer@data@tensorflow@@YA?AVStatus@lts_20230802@absl@@AEBVDispatcherConfig@experimental@12@AEAV?$unique_ptr@VDispatchGrpcDataServer@data@tensorflow@@U?$default_delete@VDispatchGrpcDataServer@data@tensorflow@@@std@@@std@@@Z
  ?NewWorkerServer@data@tensorflow@@YA?AVStatus@lts_20230802@absl@@AEBVWorkerConfig@experimental@12@AEAV?$unique_ptr@VWorkerGrpcDataServer@data@tensorflow@@U?$default_delete@VWorkerGrpcDataServer@data@tensorflow@@@std@@@std@@@Z
  ??_7DataServiceMetadata@data@tensorflow@@6B@
  ??_7DispatcherConfig@experimental@data@tensorflow@@6B@
  ??_7WorkerConfig@experimental@data@tensorflow@@6B@

;_pywrap_xla_ops
  ?GetRegisteredXlaOpsForDevice@tensorflow@@YA?AV?$StatusOr@V?$vector@V?$basic_string@DU?$char_traits@D@std@@V?$allocator@D@2@@std@@V?$allocator@V?$basic_string@DU?$char_traits@D@std@@V?$allocator@D@2@@std@@@2@@std@@@lts_20230802@absl@@V?$basic_string_view@DU?$char_traits@D@std@@@std@@@Z

;_pywrap_tpu_embedding
  ?GetTableStacks@tensorflow@@YA?AV?$vector@V?$vector@V?$basic_string@DU?$char_traits@D@std@@V?$allocator@D@2@@std@@V?$allocator@V?$basic_string@DU?$char_traits@D@std@@V?$allocator@D@2@@std@@@2@@std@@V?$allocator@V?$vector@V?$basic_string@DU?$char_traits@D@std@@V?$allocator@D@2@@std@@V?$allocator@V?$basic_string@DU?$char_traits@D@std@@V?$allocator@D@2@@std@@@2@@std@@@2@@std@@AEBV?$vector@_JV?$allocator@_J@std@@@3@000AEBV?$vector@V?$basic_string@DU?$char_traits@D@std@@V?$allocator@D@2@@std@@V?$allocator@V?$basic_string@DU?$char_traits@D@std@@V?$allocator@D@2@@std@@@2@@3@_J@Z

;_pywrap_calibration
  ??1CalibrationStatistics@calibrator@tensorflow@@UEAA@XZ
  ??0CalibrationStatistics@calibrator@tensorflow@@QEAA@AEBV012@@Z
  ?ClearCollectedInformation@CalibratorSingleton@calibrator@tensorflow@@SAXXZ
  ?ClearData@CalibratorSingleton@calibrator@tensorflow@@SAXV?$basic_string_view@DU?$char_traits@D@std@@@std@@@Z
  ?GetStatistics@CalibratorSingleton@calibrator@tensorflow@@SA?AV?$optional@VCalibrationStatistics@calibrator@tensorflow@@@std@@V?$basic_string_view@DU?$char_traits@D@std@@@5@@Z

;_pywrap_tf_optimizer
  ??1LogMessageFatal@internal@tsl@@UEAA@XZ
  ?raw_code@Status@lts_20230802@absl@@QEBAHXZ
  ?ForEachPayload@Status@lts_20230802@absl@@QEBAXV?$FunctionRef@$$A6AXV?$basic_string_view@DU?$char_traits@D@std@@@std@@AEBVCord@lts_20230802@absl@@@Z@23@@Z
  ?UnrefNonInlined@Status@lts_20230802@absl@@CAX_K@Z
  ?DestructorOutOfLine@TensorShapeRep@tensorflow@@AEAAXXZ
  ?SlowCopyFrom@TensorShapeRep@tensorflow@@AEAAXAEBV12@@Z
  ??1Tensor@tensorflow@@QEAA@XZ
  ??1GraphDef@tensorflow@@UEAA@XZ
  ??0GraphDef@tensorflow@@QEAA@AEBV01@@Z
  ?CopyFrom@GraphDef@tensorflow@@QEAAXAEBV12@@Z
  ?InternalSwap@GraphDef@tensorflow@@AEAAXPEAV12@@Z
  ??0GraphDef@tensorflow@@IEAA@PEAVArena@protobuf@google@@_N@Z
  ?Global@OpRegistry@tensorflow@@SAPEAV12@XZ
  ??1ConfigProto@tensorflow@@UEAA@XZ
  ??0ConfigProto@tensorflow@@IEAA@PEAVArena@protobuf@google@@_N@Z
  ?AddDevices@DeviceFactory@tensorflow@@SA?AVStatus@lts_20230802@absl@@AEBUSessionOptions@2@AEBV?$basic_string@DU?$char_traits@D@std@@V?$allocator@D@2@@std@@PEAV?$vector@V?$unique_ptr@VDevice@tensorflow@@U?$default_delete@VDevice@tensorflow@@@std@@@std@@V?$allocator@V?$unique_ptr@VDevice@tensorflow@@U?$default_delete@VDevice@tensorflow@@@std@@@std@@@2@@8@@Z
  ?StripDefaultAttributes@tensorflow@@YAXAEBVOpRegistryInterface@1@PEAV?$RepeatedPtrField@VNodeDef@tensorflow@@@protobuf@google@@@Z
  ??1QueueRunnerDef@tensorflow@@UEAA@XZ
  ??0QueueRunnerDef@tensorflow@@QEAA@AEBV01@@Z
  ??1DeviceProperties@tensorflow@@UEAA@XZ
  ?CopyFrom@DeviceProperties@tensorflow@@QEAAXAEBV12@@Z
  ?InternalSwap@DeviceProperties@tensorflow@@AEAAXPEAV12@@Z
  ??0DeviceProperties@tensorflow@@IEAA@PEAVArena@protobuf@google@@_N@Z
  ??0SessionOptions@tensorflow@@QEAA@XZ
  ?GetDeviceInfo@grappler@tensorflow@@YA?AVDeviceProperties@2@AEBUParsedName@DeviceNameUtils@tsl@@@Z
  ?GrapplerItemFromMetaGraphDef@grappler@tensorflow@@YA?AV?$unique_ptr@UGrapplerItem@grappler@tensorflow@@U?$default_delete@UGrapplerItem@grappler@tensorflow@@@std@@@std@@AEBV?$basic_string@DU?$char_traits@D@std@@V?$allocator@D@2@@4@AEBVMetaGraphDef@2@AEBUItemConfig@12@@Z
  ??0MetaOptimizer@grappler@tensorflow@@QEAA@PEAVDeviceBase@2@AEBVConfigProto@2@@Z
  ?OptimizeConsumeItem@MetaOptimizer@grappler@tensorflow@@QEAA?AVStatus@lts_20230802@absl@@PEAVCluster@23@$$QEAUGrapplerItem@23@PEAVGraphDef@3@@Z
  ?PrintResult@MetaOptimizer@grappler@tensorflow@@QEAAXXZ
  ??1MetaGraphDef@tensorflow@@UEAA@XZ
  ??0MetaGraphDef@tensorflow@@IEAA@PEAVArena@protobuf@google@@_N@Z
  ?GetMetadata@MetaGraphDef@tensorflow@@UEBA?AUMetadata@protobuf@google@@XZ
  ?Lookup@PyExceptionRegistry@tensorflow@@SAPEAU_object@@W4TSL_Code@@@Z
  ??_7GraphDef@tensorflow@@6B@
  ??_7ConfigProto@tensorflow@@6B@
  ??_7DeviceProperties@tensorflow@@6B@
  ?_MetaGraphDef_default_instance_@tensorflow@@3UMetaGraphDefDefaultTypeInternal@1@A
  ??_7MetaGraphDef@tensorflow@@6B@

;_pywrap_dtensor
  ?AllocateDTensorDevice@dtensor@tensorflow@@YAXV?$basic_string_view@DU?$char_traits@D@std@@@std@@PEAUTFE_CustomDevice@@PEAPEAX_NHPEAUTSL_Status@@@Z
  ?AddMesh@dtensor@tensorflow@@YAXAEBV?$basic_string@DU?$char_traits@D@std@@V?$allocator@D@2@@std@@PEAX_NPEAUTSL_Status@@@Z
  ?ExperimentalSetDefaultLayout@dtensor@tensorflow@@YAXAEBV?$basic_string@DU?$char_traits@D@std@@V?$allocator@D@2@@std@@PEAXPEAUTSL_Status@@@Z
  ?ExperimentalClearDefaultLayout@dtensor@tensorflow@@YAXPEAXPEAUTSL_Status@@@Z
  ?ExperimentalSetDefaultMesh@dtensor@tensorflow@@YAXAEBV?$basic_string@DU?$char_traits@D@std@@V?$allocator@D@2@@std@@PEAXPEAUTSL_Status@@@Z
  ?ExperimentalClearDefaultMesh@dtensor@tensorflow@@YAXPEAXPEAUTSL_Status@@@Z
  ?SetTPUCoreIDs@dtensor@tensorflow@@YAXAEBV?$basic_string@DU?$char_traits@D@std@@V?$allocator@D@2@@std@@AEBV?$vector@HV?$allocator@H@std@@@4@PEAXPEAUTSL_Status@@@Z
  ?ClearTPUCoreIDs@dtensor@tensorflow@@YAXPEAX@Z
  ?TPUCoreIDsToLocations@dtensor@tensorflow@@YA?AV?$vector@V?$vector@HV?$allocator@H@std@@@std@@V?$allocator@V?$vector@HV?$allocator@H@std@@@std@@@2@@std@@PEAUTFE_Context@@AEBV?$vector@HV?$allocator@H@std@@@4@PEAX@Z
  ?TPUCoreLocationsToIDs@dtensor@tensorflow@@YA?AV?$vector@HV?$allocator@H@std@@@std@@PEAUTFE_Context@@AEBV?$vector@V?$vector@HV?$allocator@H@std@@@std@@V?$allocator@V?$vector@HV?$allocator@H@std@@@std@@@2@@4@PEAX@Z
  ?Pack@dtensor@tensorflow@@YAPEAUTFE_TensorHandle@@PEAUTFE_Context@@HPEAPEAU3@AEBV?$basic_string@DU?$char_traits@D@std@@V?$allocator@D@2@@std@@PEAXPEAUTSL_Status@@@Z
  ?Unpack@dtensor@tensorflow@@YA?AV?$vector@PEAUTFE_TensorHandle@@V?$allocator@PEAUTFE_TensorHandle@@@std@@@std@@PEAUTFE_Context@@PEAUTFE_TensorHandle@@PEAXPEAUTSL_Status@@@Z
  ?FetchLayout@dtensor@tensorflow@@YA?AV?$basic_string@DU?$char_traits@D@std@@V?$allocator@D@2@@std@@PEAUTFE_Context@@PEAUTFE_TensorHandle@@PEAXPEAUTSL_Status@@@Z
  ?IsDTensor@dtensor@tensorflow@@YA_NPEAUTFE_Context@@PEAUTFE_TensorHandle@@PEAXPEAUTSL_Status@@@Z
  ?SparsePack@dtensor@tensorflow@@YAPEAUTFE_TensorHandle@@PEAUTFE_Context@@HPEAPEAU3@11AEBV?$basic_string@DU?$char_traits@D@std@@V?$allocator@D@2@@std@@PEAXPEAUTSL_Status@@@Z
  ?IsSparseDTensor@dtensor@tensorflow@@YA_NPEAUTFE_Context@@PEAUTFE_TensorHandle@@PEAXPEAUTSL_Status@@@Z
  ?GetStats@dtensor@tensorflow@@YA?AV?$unordered_map@V?$basic_string@DU?$char_traits@D@std@@V?$allocator@D@2@@std@@HU?$hash@V?$basic_string@DU?$char_traits@D@std@@V?$allocator@D@2@@std@@@2@U?$equal_to@V?$basic_string@DU?$char_traits@D@std@@V?$allocator@D@2@@std@@@2@V?$allocator@U?$pair@$$CBV?$basic_string@DU?$char_traits@D@std@@V?$allocator@D@2@@std@@H@std@@@2@@std@@PEAUTFE_Context@@PEAXPEAUTSL_Status@@@Z
  ?SetIteratorElementLayouts@dtensor@tensorflow@@YAXPEAUTFE_Context@@PEAUTFE_TensorHandle@@AEBV?$vector@V?$basic_string@DU?$char_traits@D@std@@V?$allocator@D@2@@std@@V?$allocator@V?$basic_string@DU?$char_traits@D@std@@V?$allocator@D@2@@std@@@2@@std@@PEAXPEAUTSL_Status@@@Z
  ??1LogMessageFatal@internal@tsl@@UEAA@XZ
  ?raw_code@Status@lts_20230802@absl@@QEBAHXZ
  ?UnrefNonInlined@Status@lts_20230802@absl@@CAX_K@Z
  ?NullTerminatedMessage@tsl@@YAPEBDAEBVStatus@lts_20230802@absl@@@Z
  ?Crash@Helper@internal_statusor@lts_20230802@absl@@SAXAEBVStatus@34@@Z
  ?ThrowBadStatusOrAccess@internal_statusor@lts_20230802@absl@@YAXVStatus@23@@Z
  ??1LayoutProto@dtensor@tensorflow@@UEAA@XZ
  ??0LayoutProto@dtensor@tensorflow@@QEAA@AEBV012@@Z
  ??0LayoutProto@dtensor@tensorflow@@IEAA@PEAVArena@protobuf@google@@_N@Z
  ?GetMetadata@LayoutProto@dtensor@tensorflow@@UEBA?AUMetadata@protobuf@google@@XZ
  ??1MeshProto@dtensor@tensorflow@@UEAA@XZ
  ??0MeshProto@dtensor@tensorflow@@QEAA@AEBV012@@Z
  ??0MeshProto@dtensor@tensorflow@@IEAA@PEAVArena@protobuf@google@@_N@Z
  ?GetMetadata@MeshProto@dtensor@tensorflow@@UEBA?AUMetadata@protobuf@google@@XZ
  ?CreateMesh@Mesh@dtensor@tensorflow@@SA?AV123@AEBV?$basic_string@DU?$char_traits@D@std@@V?$allocator@D@2@@std@@AEBV?$vector@V?$basic_string@DU?$char_traits@D@std@@V?$allocator@D@2@@std@@V?$allocator@V?$basic_string@DU?$char_traits@D@std@@V?$allocator@D@2@@std@@@2@@5@AEBV?$vector@_JV?$allocator@_J@std@@@5@2121_N@Z
  ?ParseFromProto@Mesh@dtensor@tensorflow@@SA?AV?$StatusOr@VMesh@dtensor@tensorflow@@@lts_20230802@absl@@AEBVMeshProto@23@@Z
  ?FromString@Mesh@dtensor@tensorflow@@SA?AV?$StatusOr@VMesh@dtensor@tensorflow@@@lts_20230802@absl@@V?$basic_string_view@DU?$char_traits@D@std@@@std@@@Z
  ?ToString@Mesh@dtensor@tensorflow@@QEBA?AV?$basic_string@DU?$char_traits@D@std@@V?$allocator@D@2@@std@@XZ
  ?ToProto@Mesh@dtensor@tensorflow@@QEBA?AV?$StatusOr@VMeshProto@dtensor@tensorflow@@@lts_20230802@absl@@XZ
  ?GetSingleDeviceMesh@Mesh@dtensor@tensorflow@@SA?AV?$StatusOr@VMesh@dtensor@tensorflow@@@lts_20230802@absl@@V?$basic_string_view@DU?$char_traits@D@std@@@std@@@Z
  ?device_type@Mesh@dtensor@tensorflow@@QEBA?AV?$basic_string@DU?$char_traits@D@std@@V?$allocator@D@2@@std@@XZ
  ?device_location@Mesh@dtensor@tensorflow@@QEBA?AV?$StatusOr@$$CBV?$InlinedVector@_J$03V?$allocator@_J@std@@@lts_20230802@absl@@@lts_20230802@absl@@H@Z
  ?num_devices@Mesh@dtensor@tensorflow@@QEBA_JXZ
  ?ToDeviceType@Mesh@dtensor@tensorflow@@QEBA?AV?$StatusOr@VMesh@dtensor@tensorflow@@@lts_20230802@absl@@AEBV?$basic_string@DU?$char_traits@D@std@@V?$allocator@D@2@@std@@@Z
  ?dim_size@Mesh@dtensor@tensorflow@@QEBA?AV?$StatusOr@_J@lts_20230802@absl@@V?$basic_string_view@DU?$char_traits@D@std@@@std@@@Z
  ?dim_sizes@Mesh@dtensor@tensorflow@@QEBA?AV?$vector@_JV?$allocator@_J@std@@@std@@XZ
  ?IsMeshDim@Mesh@dtensor@tensorflow@@QEBA_NAEBV?$basic_string@DU?$char_traits@D@std@@V?$allocator@D@2@@std@@@Z
  ?MeshDimNames@Mesh@dtensor@tensorflow@@QEBA?AV?$vector@V?$basic_string@DU?$char_traits@D@std@@V?$allocator@D@2@@std@@V?$allocator@V?$basic_string@DU?$char_traits@D@std@@V?$allocator@D@2@@std@@@2@@std@@XZ
  ??8Mesh@dtensor@tensorflow@@QEBA_NAEBV012@@Z
  ?FromProto@Layout@dtensor@tensorflow@@SA?AV?$StatusOr@VLayout@dtensor@tensorflow@@@lts_20230802@absl@@AEBVLayoutProto@23@@Z
  ?FromString@Layout@dtensor@tensorflow@@SA?AV?$StatusOr@VLayout@dtensor@tensorflow@@@lts_20230802@absl@@V?$basic_string_view@DU?$char_traits@D@std@@@std@@@Z
  ?ToString@Layout@dtensor@tensorflow@@QEBA?AV?$basic_string@DU?$char_traits@D@std@@V?$allocator@D@2@@std@@XZ
  ?ToProto@Layout@dtensor@tensorflow@@QEBA?AV?$StatusOr@VLayoutProto@dtensor@tensorflow@@@lts_20230802@absl@@XZ
  ?ReplicatedOnMesh@Layout@dtensor@tensorflow@@SA?AV123@AEBVMesh@23@H@Z
  ?BatchShardedOnMesh@Layout@dtensor@tensorflow@@SA?AV123@AEBVMesh@23@HAEBV?$basic_string@DU?$char_traits@D@std@@V?$allocator@D@2@@std@@H@Z
  ?GetLayout@Layout@dtensor@tensorflow@@SA?AV?$StatusOr@VLayout@dtensor@tensorflow@@@lts_20230802@absl@@W4LayoutType@123@AEBV?$vector@V?$basic_string@DU?$char_traits@D@std@@V?$allocator@D@2@@std@@V?$allocator@V?$basic_string@DU?$char_traits@D@std@@V?$allocator@D@2@@std@@@2@@std@@AEBVMesh@23@@Z
  ?IsFullyReplicated@Layout@dtensor@tensorflow@@QEBA_NXZ
  ?IsBatchParallel@Layout@dtensor@tensorflow@@QEBA_NXZ
  ?GlobalShapeFromLocalShape@Layout@dtensor@tensorflow@@QEBA?AV?$vector@_JV?$allocator@_J@std@@@std@@V?$Span@$$CB_J@lts_20230802@absl@@PEBV?$vector@V?$vector@_JV?$allocator@_J@std@@@std@@V?$allocator@V?$vector@_JV?$allocator@_J@std@@@std@@@2@@5@@Z
  ?LocalShapeFromGlobalShape@Layout@dtensor@tensorflow@@QEBA?AV?$vector@_JV?$allocator@_J@std@@@std@@V?$Span@$$CB_J@lts_20230802@absl@@@Z
  ?num_shards_for_dim@Layout@dtensor@tensorflow@@QEBA_KH@Z
  ?sharding_spec_strs@Layout@dtensor@tensorflow@@QEBA?AV?$vector@V?$basic_string@DU?$char_traits@D@std@@V?$allocator@D@2@@std@@V?$allocator@V?$basic_string@DU?$char_traits@D@std@@V?$allocator@D@2@@std@@@2@@std@@XZ
  ??8Layout@dtensor@tensorflow@@QEBA_NAEBV012@@Z
  ?EagerTensor_CheckExact@@YA_NPEBU_object@@@Z
  ?EagerTensor_Handle@@YAPEAUTFE_TensorHandle@@PEBU_object@@@Z
  ?ConvertToEagerTensor@tensorflow@@YAPEAUTFE_TensorHandle@@PEAUTFE_Context@@PEAU_object@@W4DataType@1@PEBD@Z
  ?MaybeRaiseExceptionFromTFStatus@tensorflow@@YAHPEAUTSL_Status@@PEAU_object@@@Z
  ?EagerTensorFromHandle@@YAPEAU_object@@PEAUTFE_TensorHandle@@_N@Z
  ?IsResourceVariable@swig@tensorflow@@YA_NPEAU_object@@@Z
  ?_LayoutProto_default_instance_@dtensor@tensorflow@@3ULayoutProtoDefaultTypeInternal@12@A
  ?_MeshProto_default_instance_@dtensor@tensorflow@@3UMeshProtoDefaultTypeInternal@12@A
  ??_7LayoutProto@dtensor@tensorflow@@6B@
  ??_7MeshProto@dtensor@tensorflow@@6B@

;_pywrap_tf_session
  ?raw_code@Status@lts_20230802@absl@@QEBAHXZ
  ?ForEachPayload@Status@lts_20230802@absl@@QEBAXV?$FunctionRef@$$A6AXV?$basic_string_view@DU?$char_traits@D@std@@@std@@AEBVCord@lts_20230802@absl@@@Z@23@@Z
  ?UnrefNonInlined@Status@lts_20230802@absl@@CAX_K@Z
  ??0LogMessage@internal@tsl@@QEAA@PEBDHH@Z
  ??1LogMessage@internal@tsl@@UEAA@XZ
  ?VmoduleActivated@LogMessage@internal@tsl@@SA_NPEBDH@Z
  ??0LogMessageFatal@internal@tsl@@QEAA@PEBDH@Z
  ??1LogMessageFatal@internal@tsl@@UEAA@XZ
  ?OkStatus@tsl@@YA?AVStatus@lts_20230802@absl@@XZ
  ?NullTerminatedMessage@tsl@@YAPEBDAEBVStatus@lts_20230802@absl@@@Z
  ?HandleInvalidStatusCtorArg@Helper@internal_statusor@lts_20230802@absl@@SAXPEAVStatus@34@@Z
  ?ThrowBadStatusOrAccess@internal_statusor@lts_20230802@absl@@YAXVStatus@23@@Z
  ?lock@mutex@tsl@@QEAAXXZ
  ?unlock@mutex@tsl@@QEAAXXZ
  ??1ApiDef@tensorflow@@UEAA@XZ
  ??0ApiDef@tensorflow@@QEAA@AEBV01@@Z
  ??1ApiDefMap@tensorflow@@QEAA@XZ
  ??1NodeDef@tensorflow@@UEAA@XZ
  ??0NodeDef@tensorflow@@QEAA@AEBV01@@Z
  ?CopyFrom@NodeDef@tensorflow@@QEAAXAEBV12@@Z
  ?InternalSwap@NodeDef@tensorflow@@AEAAXPEAV12@@Z
  ??0NodeDef@tensorflow@@IEAA@PEAVArena@protobuf@google@@_N@Z
  ??$CreateMaybeMessage@VFunctionDef@tensorflow@@$$V@Arena@protobuf@google@@CAPEAVFunctionDef@tensorflow@@PEAV012@@Z
  ??1FunctionDef@tensorflow@@UEAA@XZ
  ?CopyFrom@FunctionDef@tensorflow@@QEAAXAEBV12@@Z
  ?InternalSwap@FunctionDef@tensorflow@@AEAAXPEAV12@@Z
  ??0FunctionDef@tensorflow@@IEAA@PEAVArena@protobuf@google@@_N@Z
  ?GetMetadata@FunctionDef@tensorflow@@UEBA?AUMetadata@protobuf@google@@XZ
  ??1GraphDef@tensorflow@@UEAA@XZ
  ??0GraphDef@tensorflow@@IEAA@PEAVArena@protobuf@google@@_N@Z
  ?GetMetadata@GraphDef@tensorflow@@UEBA?AUMetadata@protobuf@google@@XZ
  ?LookUpOpDef@OpRegistryInterface@tensorflow@@QEBA?AVStatus@lts_20230802@absl@@AEBV?$basic_string@DU?$char_traits@D@std@@V?$allocator@D@2@@std@@PEAPEBVOpDef@2@@Z
  ??1DeviceAttributes@tensorflow@@UEAA@XZ
  ??0DeviceAttributes@tensorflow@@QEAA@AEBV01@@Z
  ??1ConfigProto@tensorflow@@UEAA@XZ
  ??0ConfigProto@tensorflow@@QEAA@AEBV01@@Z
  ?CopyFrom@ConfigProto@tensorflow@@QEAAXAEBV12@@Z
  ?InternalSwap@ConfigProto@tensorflow@@AEAAXPEAV12@@Z
  ??0ConfigProto@tensorflow@@IEAA@PEAVArena@protobuf@google@@_N@Z
  ??0FunctionRecord@tensorflow@@QEAA@$$QEAVFunctionDef@1@$$QEAV?$flat_hash_map@V?$basic_string@DU?$char_traits@D@std@@V?$allocator@D@2@@std@@V?$shared_ptr@VAbstractStackTrace@tensorflow@@@2@UStringHash@container_internal@lts_20230802@absl@@UStringEq@567@V?$allocator@U?$pair@$$CBV?$basic_string@DU?$char_traits@D@std@@V?$allocator@D@2@@std@@V?$shared_ptr@VAbstractStackTrace@tensorflow@@@2@@std@@@2@@lts_20230802@absl@@_N@Z
  ?name@Node@tensorflow@@QEBAAEBV?$basic_string@DU?$char_traits@D@std@@V?$allocator@D@2@@std@@XZ
  ?type_string@Node@tensorflow@@QEBAAEBV?$basic_string@DU?$char_traits@D@std@@V?$allocator@D@2@@std@@XZ
  ?def@Node@tensorflow@@QEBAAEBVNodeDef@2@XZ
  ?op_def@Node@tensorflow@@QEBAAEBVOpDef@2@XZ
  ?requested_device@Node@tensorflow@@QEBAAEBV?$basic_string@DU?$char_traits@D@std@@V?$allocator@D@2@@std@@XZ
  ?set_requested_device@Node@tensorflow@@QEAAXAEBV?$basic_string@DU?$char_traits@D@std@@V?$allocator@D@2@@std@@@Z
  ?versions@Graph@tensorflow@@QEBAAEBVVersionDef@2@XZ
  ?AddControlEdge@Graph@tensorflow@@QEAAPEBVEdge@2@PEAVNode@2@0_N@Z
  ?RemoveControlEdge@Graph@tensorflow@@QEAAXPEBVEdge@2@@Z
  ?ToGraphDef@Graph@tensorflow@@QEBAXPEAVGraphDef@2@_N1@Z
  ?RecordMutation@tensorflow@@YAXPEAUTF_Graph@@AEBUTF_Operation@@PEBD@Z
  ?SetAttr@tensorflow@@YAXPEAUTF_Graph@@PEAUTF_Operation@@PEBDPEAUTF_Buffer@@PEAUTSL_Status@@@Z
  ?ClearAttr@tensorflow@@YAXPEAUTF_Graph@@PEAUTF_Operation@@PEBDPEAUTSL_Status@@@Z
  ?SetFullType@tensorflow@@YAXPEAUTF_Graph@@PEAUTF_Operation@@PEBUTF_Buffer@@@Z
  ?UpdateEdge@tensorflow@@YAXPEAUTF_Graph@@UTF_Output@@UTF_Input@@PEAUTSL_Status@@@Z
  ?ExtendSession@tensorflow@@YAXPEAUTF_Session@@PEAUTSL_Status@@@Z
  ?GetHandleShapeAndType@tensorflow@@YA?AV?$basic_string@DU?$char_traits@D@std@@V?$allocator@D@2@@std@@PEAUTF_Graph@@UTF_Output@@@Z
  ?SetHandleShapeAndType@tensorflow@@YAXPEAUTF_Graph@@UTF_Output@@PEBX_KPEAUTSL_Status@@@Z
  ?AddWhileInputHack@tensorflow@@YAXPEAUTF_Graph@@UTF_Output@@PEAUTF_Operation@@PEAUTSL_Status@@@Z
  ?make_safe@tensorflow@@YA?AV?$unique_ptr@UTSL_Status@@UTFStatusDeleter@detail@tensorflow@@@std@@PEAUTSL_Status@@@Z
  ?make_safe@tensorflow@@YA?AV?$unique_ptr@UTF_Buffer@@UTFBufferDeleter@detail@tensorflow@@@std@@PEAUTF_Buffer@@@Z
  ?ImportNumpy@tsl@@YAXXZ
  ?TF_NewSessionRef@tensorflow@@YAPEAUTF_Session@@PEAUTF_Graph@@PEBUTF_SessionOptions@@PEAUTSL_Status@@@Z
  ?TF_SessionMakeCallable@tensorflow@@YAXPEAUTF_Session@@PEBUTF_Buffer@@PEA_JPEAUTSL_Status@@@Z
  ?TF_SessionRunCallable@tensorflow@@YAXPEAUTF_Session@@_JPEAU_object@@PEAV?$InlinedVector@PEAU_object@@$07V?$allocator@PEAU_object@@@std@@@lts_20230802@absl@@PEAUTF_Buffer@@PEAUTSL_Status@@@Z
  ?TF_SessionReleaseCallable@tensorflow@@YAXPEAUTF_Session@@_JPEAUTSL_Status@@@Z
  ?TF_Reset_wrapper@tensorflow@@YAXPEBUTF_SessionOptions@@AEBV?$InlinedVector@PEBD$07V?$allocator@PEBD@std@@@lts_20230802@absl@@PEAUTSL_Status@@@Z
  ?EqualGraphDefWrapper@tensorflow@@YA?AV?$basic_string@DU?$char_traits@D@std@@V?$allocator@D@2@@std@@AEBV23@0@Z
  ?EqualAttrValueWrapper@tensorflow@@YA?AV?$basic_string@DU?$char_traits@D@std@@V?$allocator@D@2@@std@@AEBV23@0@Z
  ?TF_GraphGetTensorShapeHelper@tensorflow@@YA?AV?$InlinedVector@_J$05V?$allocator@_J@std@@@lts_20230802@absl@@PEAUTF_Graph@@UTF_Output@@PEAUTSL_Status@@PEA_N@Z
  ?TF_SessionRun_wrapper@tensorflow@@YAXPEAUTF_Session@@PEBUTF_Buffer@@AEBV?$vector@UTF_Output@@V?$allocator@UTF_Output@@@std@@@std@@AEBV?$vector@PEAU_object@@V?$allocator@PEAU_object@@@std@@@5@2AEBV?$vector@PEAUTF_Operation@@V?$allocator@PEAUTF_Operation@@@std@@@5@PEAU3@PEAUTSL_Status@@PEAV65@@Z
  ?TF_SessionPRunSetup_wrapper@tensorflow@@YAXPEAUTF_Session@@AEBV?$vector@UTF_Output@@V?$allocator@UTF_Output@@@std@@@std@@1AEBV?$vector@PEAUTF_Operation@@V?$allocator@PEAUTF_Operation@@@std@@@4@PEAPEBDPEAUTSL_Status@@@Z
  ?TF_SessionPRun_wrapper@tensorflow@@YAXPEAUTF_Session@@PEBDAEBV?$vector@UTF_Output@@V?$allocator@UTF_Output@@@std@@@std@@AEBV?$vector@PEAU_object@@V?$allocator@PEAU_object@@@std@@@4@2PEAUTSL_Status@@PEAV54@@Z
  ?GetOperationInputs@tensorflow@@YA?AV?$vector@UTF_Output@@V?$allocator@UTF_Output@@@std@@@std@@PEAUTF_Operation@@@Z
  ?TF_OperationGetControlOutputs_wrapper@tensorflow@@YA?AV?$vector@PEAUTF_Operation@@V?$allocator@PEAUTF_Operation@@@std@@@std@@PEAUTF_Operation@@@Z
  ?TF_GraphToFunction_wrapper@tensorflow@@YAPEAUTF_Function@@PEBUTF_Graph@@PEBD_NPEBV?$vector@PEAUTF_Operation@@V?$allocator@PEAUTF_Operation@@@std@@@std@@AEBV?$vector@UTF_Output@@V?$allocator@UTF_Output@@@std@@@5@4AEBV?$InlinedVector@PEBD$07V?$allocator@PEBD@std@@@lts_20230802@absl@@35PEBUTF_FunctionOptions@@1PEAUTSL_Status@@@Z
  ?TF_GraphSetOutputHandleShapesAndTypes_wrapper@tensorflow@@YAXPEAUTF_Graph@@UTF_Output@@AEBV?$vector@V?$vector@_JV?$allocator@_J@std@@@std@@V?$allocator@V?$vector@_JV?$allocator@_J@std@@@std@@@2@@std@@AEBV?$vector@HV?$allocator@H@std@@@5@AEBV?$vector@W4TF_DataType@@V?$allocator@W4TF_DataType@@@std@@@5@PEAUTSL_Status@@@Z
  ?TF_CreatePlaceholders@tensorflow@@YA?AV?$vector@UTF_Output@@V?$allocator@UTF_Output@@@std@@@std@@PEAUTF_Graph@@PEAU_object@@PEBDPEAUTSL_Status@@@Z
  ?TF_GraphSetTensorShape_wrapper@tensorflow@@YAXPEAUTF_Graph@@UTF_Output@@AEBV?$vector@_JV?$allocator@_J@std@@@std@@_NPEAUTSL_Status@@@Z
  ?TF_ImportGraphDefResultsMissingUnusedInputMappings_wrapper@tensorflow@@YA?AV?$vector@V?$basic_string@DU?$char_traits@D@std@@V?$allocator@D@2@@std@@V?$allocator@V?$basic_string@DU?$char_traits@D@std@@V?$allocator@D@2@@std@@@2@@std@@PEAUTF_ImportGraphDefResults@@@Z
  ?TF_TryEvaluateConstant_wrapper@tensorflow@@YAPEAU_object@@PEAUTF_Graph@@UTF_Output@@PEAUTSL_Status@@@Z
  ?Lookup@PyExceptionRegistry@tensorflow@@SAPEAU_object@@W4TSL_Code@@@Z
  ??_7NodeDef@tensorflow@@6B@
  ?_FunctionDef_default_instance_@tensorflow@@3UFunctionDefDefaultTypeInternal@1@A
  ??_7FunctionDef@tensorflow@@6B@
  ?_GraphDef_default_instance_@tensorflow@@3UGraphDefDefaultTypeInternal@1@A
  ??_7GraphDef@tensorflow@@6B@
  ??_7ConfigProto@tensorflow@@6B@

;xla_ops
  ?MaybeTrackCordImpl@CordzInfo@cord_internal@lts_20230802@absl@@CAXAEAVInlineData@234@AEBV5234@W4MethodIdentifier@CordzUpdateTracker@234@@Z
  ??BCord@lts_20230802@absl@@QEBA?AV?$basic_string@DU?$char_traits@D@std@@V?$allocator@D@2@@std@@XZ
  ??0Cord@lts_20230802@absl@@AEAA@V?$basic_string_view@DU?$char_traits@D@std@@@std@@W4MethodIdentifier@CordzUpdateTracker@cord_internal@12@@Z
  ?DestroyCordSlow@Cord@lts_20230802@absl@@AEAAXXZ
  ??0LogMessage@internal@tsl@@QEAA@PEBDHH@Z
  ??1LogMessage@internal@tsl@@UEAA@XZ
  ?VmoduleActivated@LogMessage@internal@tsl@@SA_NPEBDH@Z
  ??0LogMessageFatal@internal@tsl@@QEAA@PEBDH@Z
  ??1LogMessageFatal@internal@tsl@@UEAA@XZ
  ??0CheckOpMessageBuilder@internal@tsl@@QEAA@PEBD@Z
  ??1CheckOpMessageBuilder@internal@tsl@@QEAA@XZ
  ?ForVar2@CheckOpMessageBuilder@internal@tsl@@QEAAPEAV?$basic_ostream@DU?$char_traits@D@std@@@std@@XZ
  ?NewString@CheckOpMessageBuilder@internal@tsl@@QEAAPEAV?$basic_string@DU?$char_traits@D@std@@V?$allocator@D@2@@std@@XZ
  ??0Status@lts_20230802@absl@@QEAA@W4StatusCode@12@V?$basic_string_view@DU?$char_traits@D@std@@@std@@@Z
  ?code@Status@lts_20230802@absl@@QEBA?AW4StatusCode@23@XZ
  ?SetPayload@Status@lts_20230802@absl@@QEAAXV?$basic_string_view@DU?$char_traits@D@std@@@std@@VCord@23@@Z
  ?ForEachPayload@Status@lts_20230802@absl@@QEBAXV?$FunctionRef@$$A6AXV?$basic_string_view@DU?$char_traits@D@std@@@std@@AEBVCord@lts_20230802@absl@@@Z@23@@Z
  ?UnrefNonInlined@Status@lts_20230802@absl@@CAX_K@Z
  ?OkStatus@tsl@@YA?AVStatus@lts_20230802@absl@@XZ
  ?FastInt32ToBufferLeft@strings@tsl@@YA_KHPEAD@Z
  ?FastInt64ToBufferLeft@strings@tsl@@YA_K_JPEAD@Z
  ?FastUInt64ToBufferLeft@strings@tsl@@YA_K_KPEAD@Z
  ?StrCat@strings@tsl@@YA?AV?$basic_string@DU?$char_traits@D@std@@V?$allocator@D@2@@std@@AEBVAlphaNum@12@@Z
  ?StrCat@strings@tsl@@YA?AV?$basic_string@DU?$char_traits@D@std@@V?$allocator@D@2@@std@@AEBVAlphaNum@12@0@Z
  ?StrCat@strings@tsl@@YA?AV?$basic_string@DU?$char_traits@D@std@@V?$allocator@D@2@@std@@AEBVAlphaNum@12@000@Z
  ?CatPieces@internal@strings@tsl@@YA?AV?$basic_string@DU?$char_traits@D@std@@V?$allocator@D@2@@std@@V?$initializer_list@V?$basic_string_view@DU?$char_traits@D@std@@@std@@@5@@Z
  ?DestructorOutOfLine@TensorShapeRep@tensorflow@@AEAAXXZ
  ??0?$TensorShapeBase@VTensorShape@tensorflow@@@tensorflow@@QEAA@XZ
  ?dim_size@?$TensorShapeBase@VTensorShape@tensorflow@@@tensorflow@@QEBA_JH@Z
  ??1OpDef@tensorflow@@UEAA@XZ
  ?GetNodeAttr@tensorflow@@YA?AVStatus@lts_20230802@absl@@AEBVAttrSlice@1@V?$basic_string_view@DU?$char_traits@D@std@@@std@@PEAV?$basic_string@DU?$char_traits@D@std@@V?$allocator@D@2@@7@@Z
  ?GetNodeAttr@tensorflow@@YA?AVStatus@lts_20230802@absl@@AEBVAttrSlice@1@V?$basic_string_view@DU?$char_traits@D@std@@@std@@PEAH@Z
  ?GetNodeAttr@tensorflow@@YA?AVStatus@lts_20230802@absl@@AEBVAttrSlice@1@V?$basic_string_view@DU?$char_traits@D@std@@@std@@PEAVTensorShape@1@@Z
  ?GetNodeAttr@tensorflow@@YA?AVStatus@lts_20230802@absl@@AEBVAttrSlice@1@V?$basic_string_view@DU?$char_traits@D@std@@@std@@PEAV?$vector@_JV?$allocator@_J@std@@@7@@Z
  ?GetNodeAttr@tensorflow@@YA?AVStatus@lts_20230802@absl@@AEBVAttrSlice@1@V?$basic_string_view@DU?$char_traits@D@std@@@std@@PEAV?$vector@VTensorShape@tensorflow@@V?$allocator@VTensorShape@tensorflow@@@std@@@7@@Z
  ?GetNodeAttr@tensorflow@@YA?AVStatus@lts_20230802@absl@@AEBVAttrSlice@1@V?$basic_string_view@DU?$char_traits@D@std@@@std@@PEAV?$vector@VPartialTensorShape@tensorflow@@V?$allocator@VPartialTensorShape@tensorflow@@@std@@@7@@Z
  ?input@InferenceContext@shape_inference@tensorflow@@QEBA?AVStatus@lts_20230802@absl@@V?$basic_string_view@DU?$char_traits@D@std@@@std@@PEAV?$vector@VShapeHandle@shape_inference@tensorflow@@V?$allocator@VShapeHandle@shape_inference@tensorflow@@@std@@@8@@Z
  ?set_output@InferenceContext@shape_inference@tensorflow@@QEAA?AVStatus@lts_20230802@absl@@V?$basic_string_view@DU?$char_traits@D@std@@@std@@AEBV?$vector@VShapeHandle@shape_inference@tensorflow@@V?$allocator@VShapeHandle@shape_inference@tensorflow@@@std@@@8@@Z
  ?DebugString@InferenceContext@shape_inference@tensorflow@@QEAA?AV?$basic_string@DU?$char_traits@D@std@@V?$allocator@D@2@@std@@VShapeHandle@23@@Z
  ?WithRank@InferenceContext@shape_inference@tensorflow@@QEAA?AVStatus@lts_20230802@absl@@VShapeHandle@23@_JPEAV723@@Z
  ?Merge@InferenceContext@shape_inference@tensorflow@@QEAA?AVStatus@lts_20230802@absl@@VShapeHandle@23@0PEAV723@@Z
  ?Merge@InferenceContext@shape_inference@tensorflow@@QEAA?AVStatus@lts_20230802@absl@@VDimensionHandle@23@0PEAV723@@Z
  ?MakeShape@InferenceContext@shape_inference@tensorflow@@QEAA?AVShapeHandle@23@AEBV?$vector@VDimensionHandle@shape_inference@tensorflow@@V?$allocator@VDimensionHandle@shape_inference@tensorflow@@@std@@@std@@@Z
  ?MakeShape@InferenceContext@shape_inference@tensorflow@@QEAA?AVShapeHandle@23@V?$initializer_list@UDimensionOrConstant@shape_inference@tensorflow@@@std@@@Z
  ?UnknownShape@InferenceContext@shape_inference@tensorflow@@QEAA?AVShapeHandle@23@XZ
  ?UnknownShapeOfRank@InferenceContext@shape_inference@tensorflow@@QEAA?AVShapeHandle@23@_J@Z
  ?MakeShapeFromShapeTensor@InferenceContext@shape_inference@tensorflow@@QEAA?AVStatus@lts_20230802@absl@@HPEAVShapeHandle@23@@Z
  ?MakeShapeFromPartialTensorShape@InferenceContext@shape_inference@tensorflow@@QEAA?AVStatus@lts_20230802@absl@@AEBVPartialTensorShape@3@PEAVShapeHandle@23@@Z
  ?MakeShapeFromTensorShape@InferenceContext@shape_inference@tensorflow@@QEAA?AVStatus@lts_20230802@absl@@AEBVTensorShape@3@PEAVShapeHandle@23@@Z
  ?GetScalarFromTensor@InferenceContext@shape_inference@tensorflow@@QEAA?AVStatus@lts_20230802@absl@@PEBVTensor@3@_JPEA_J@Z
  ?UnchangedShape@shape_inference@tensorflow@@YA?AVStatus@lts_20230802@absl@@PEAVInferenceContext@12@@Z
  ?EinsumShape@shape_inference@tensorflow@@YA?AVStatus@lts_20230802@absl@@PEAVInferenceContext@12@@Z
  ?UnknownShape@shape_inference@tensorflow@@YA?AVStatus@lts_20230802@absl@@PEAVInferenceContext@12@@Z
  ?ReduceScatterShape@shape_inference@tensorflow@@YA?AVStatus@lts_20230802@absl@@PEAVInferenceContext@12@@Z
  ??0OpDefBuilder@tensorflow@@QEAA@V?$basic_string@DU?$char_traits@D@std@@V?$allocator@D@2@@std@@@Z
  ?Attr@OpDefBuilder@tensorflow@@QEAAAEAV12@V?$basic_string@DU?$char_traits@D@std@@V?$allocator@D@2@@std@@@Z
  ?Input@OpDefBuilder@tensorflow@@QEAAAEAV12@V?$basic_string@DU?$char_traits@D@std@@V?$allocator@D@2@@std@@@Z
  ?Output@OpDefBuilder@tensorflow@@QEAAAEAV12@V?$basic_string@DU?$char_traits@D@std@@V?$allocator@D@2@@std@@@Z
  ?SetIsStateful@OpDefBuilder@tensorflow@@QEAAAEAV12@XZ
  ?Doc@OpDefBuilder@tensorflow@@QEAAAEAV12@V?$basic_string@DU?$char_traits@D@std@@V?$allocator@D@2@@std@@@Z
  ?SetShapeFn@OpDefBuilder@tensorflow@@QEAAAEAV12@V?$function@$$A6A?AVStatus@lts_20230802@absl@@PEAVInferenceContext@shape_inference@tensorflow@@@Z@std@@@Z
  ??ROpDefBuilderWrapper@register_op@tensorflow@@QEAA?AUInitOnStartupMarker@2@XZ

; custom ops
  ??$eigen_device@UThreadPoolDevice@Eigen@@@OpKernelContext@tensorflow@@QEBAAEBUThreadPoolDevice@Eigen@@XZ
  ??0Name@register_kernel@tensorflow@@QEAA@PEBD@Z
  ??0OpKernel@tensorflow@@QEAA@PEAVOpKernelConstruction@1@@Z
  ??0Tensor@tensorflow@@QEAA@XZ
  ??1KernelDefBuilder@tensorflow@@QEAA@XZ
  ??1OpKernel@tensorflow@@UEAA@XZ
  ??1ResourceHandle@tensorflow@@QEAA@XZ
  ??1Variant@tensorflow@@QEAA@XZ
  ?Add@InferenceContext@shape_inference@tensorflow@@QEAA?AVStatus@lts_20230802@absl@@VDimensionHandle@23@UDimensionOrConstant@23@PEAV723@@Z
  ?allocate_output@OpKernelContext@tensorflow@@QEAA?AVStatus@lts_20230802@absl@@HAEBVTensorShape@2@PEAPEAVTensor@2@@Z
  ?allocate_output@OpKernelContext@tensorflow@@QEAA?AVStatus@lts_20230802@absl@@V?$basic_string_view@DU?$char_traits@D@std@@@std@@AEBVTensorShape@2@PEAPEAVTensor@2@@Z
  ?allocate_temp@OpKernelContext@tensorflow@@QEAA?AVStatus@lts_20230802@absl@@W4DataType@2@AEBVTensorShape@2@PEAVTensor@2@UAllocatorAttributes@tsl@@@Z
  ?Build@KernelDefBuilder@tensorflow@@QEAAPEBVKernelDef@2@XZ
  ?CheckDimsEqual@TensorShape@tensorflow@@AEBAXH@Z
  ?CheckIsAlignedAndSingleElement@Tensor@tensorflow@@AEBAXXZ
  ?CheckNotInComputeAsync@tensorflow@@YAXPEAVOpKernelContext@1@PEBD@Z
  ?CheckTypeAndIsAligned@Tensor@tensorflow@@AEBAXW4DataType@2@@Z
  ?Compute@AsyncOpKernel@tensorflow@@UEAAXPEAVOpKernelContext@2@@Z
  ?Create@PtrOpKernelFactory@OpKernelRegistrar@kernel_factory@tensorflow@@UEAAPEAVOpKernel@4@PEAVOpKernelConstruction@4@@Z
  ?CtxFailure@OpKernelConstruction@tensorflow@@QEAAXPEBDHAEBVStatus@lts_20230802@absl@@@Z
  ?CtxFailure@OpKernelContext@tensorflow@@QEAAXPEBDHAEBVStatus@lts_20230802@absl@@@Z
  ?CtxFailureWithWarning@OpKernelConstruction@tensorflow@@QEAAXPEBDHAEBVStatus@lts_20230802@absl@@@Z
  ?CtxFailureWithWarning@OpKernelContext@tensorflow@@QEAAXPEBDHAEBVStatus@lts_20230802@absl@@@Z
  ?DebugString@Tensor@tensorflow@@QEBA?AV?$basic_string@DU?$char_traits@D@std@@V?$allocator@D@2@@std@@H@Z
  ?Device@KernelDefBuilder@tensorflow@@QEAAAEAV12@PEBD@Z
  ?Divide@InferenceContext@shape_inference@tensorflow@@QEAA?AVStatus@lts_20230802@absl@@VDimensionHandle@23@UDimensionOrConstant@23@_NPEAV723@@Z
  ?GetNodeAttr@tensorflow@@YA?AVStatus@lts_20230802@absl@@AEBVAttrSlice@1@V?$basic_string_view@DU?$char_traits@D@std@@@std@@PEA_J@Z
  ?GetNodeAttr@tensorflow@@YA?AVStatus@lts_20230802@absl@@AEBVAttrSlice@1@V?$basic_string_view@DU?$char_traits@D@std@@@std@@PEA_N@Z
  ?GetNodeAttr@tensorflow@@YA?AVStatus@lts_20230802@absl@@AEBVAttrSlice@1@V?$basic_string_view@DU?$char_traits@D@std@@@std@@PEAM@Z
  ?GetNodeAttr@tensorflow@@YA?AVStatus@lts_20230802@absl@@AEBVAttrSlice@1@V?$basic_string_view@DU?$char_traits@D@std@@@std@@PEAW4DataType@1@@Z
  ?InitInternal@OpKernelRegistrar@kernel_factory@tensorflow@@AEAAXPEBVKernelDef@3@V?$basic_string_view@DU?$char_traits@D@std@@@std@@V?$unique_ptr@VOpKernelFactory@kernel_factory@tensorflow@@U?$default_delete@VOpKernelFactory@kernel_factory@tensorflow@@@std@@@6@@Z
  ?input@OpKernelContext@tensorflow@@QEAA?AVStatus@lts_20230802@absl@@V?$basic_string_view@DU?$char_traits@D@std@@@std@@PEAPEBVTensor@2@@Z
  ?input@OpKernelContext@tensorflow@@QEBAAEBVTensor@2@H@Z
  ?IsSameSize@TensorShape@tensorflow@@QEBA_NAEBV12@@Z
  ?MakeRefCountingHandle@ResourceHandle@tensorflow@@SA?AV12@PEAVResourceBase@2@AEBV?$basic_string@DU?$char_traits@D@std@@V?$allocator@D@2@@std@@AEBVTypeIndex@2@AEBV?$vector@UDtypeAndPartialTensorShape@tensorflow@@V?$allocator@UDtypeAndPartialTensorShape@tensorflow@@@std@@@5@AEBV?$optional@VManagedStackTrace@tensorflow@@@5@@Z
  ?MatchSignature@OpKernelContext@tensorflow@@QEAA?AVStatus@lts_20230802@absl@@V?$Span@$$CBW4DataType@tensorflow@@@45@0@Z
  ?Matrix@InferenceContext@shape_inference@tensorflow@@QEAA?AVShapeHandle@23@UDimensionOrConstant@23@0@Z
  ?Multiply@InferenceContext@shape_inference@tensorflow@@QEAA?AVStatus@lts_20230802@absl@@VDimensionHandle@23@UDimensionOrConstant@23@PEAV723@@Z
  ?record_persistent_memory_allocation@OpKernelContext@tensorflow@@QEAAX_J0@Z
  ?Scalar@InferenceContext@shape_inference@tensorflow@@QEAA?AVShapeHandle@23@XZ
  ?Schedule@ThreadPool@thread@tsl@@QEAAXV?$function@$$A6AXXZ@std@@@Z
  ?set_output@OpKernelContext@tensorflow@@QEAAXHAEBVTensor@2@@Z
  ?Subtract@InferenceContext@shape_inference@tensorflow@@QEAA?AVStatus@lts_20230802@absl@@VDimensionHandle@23@UDimensionOrConstant@23@PEAV723@@Z
  ?tensor_data@Tensor@tensorflow@@QEBA?AV?$basic_string_view@DU?$char_traits@D@std@@@std@@XZ
  ?TraceString@OpKernel@tensorflow@@UEBA?AV?$basic_string@DU?$char_traits@D@std@@V?$allocator@D@2@@std@@AEBVOpKernelContext@2@_N@Z
  ?TypeConstraint@KernelDefBuilder@tensorflow@@QEAAAEAV12@PEBDW4DataType@2@@Z
  ?ValidateType@ResourceHandle@tensorflow@@QEBA?AVStatus@lts_20230802@absl@@AEBVTypeIndex@2@@Z
  ?Vector@InferenceContext@shape_inference@tensorflow@@QEAA?AVShapeHandle@23@UDimensionOrConstant@23@@Z